(dp0
S'layout'
p1
(lp2
(lp3
F-71.03545041710512
aF-25.872339706814255
aa(lp4
F-48.97200867700131
aF-56.88338314253713
aa(lp5
F-4.69710617286084
aF53.70854933710932
aa(lp6
F-63.99525364537563
aF-2.650815139684529
aa(lp7
F15.259885172097722
aF-54.35864759591997
aa(lp8
F-15.073487146672834
aF-71.93802016938173
aa(lp9
F-40.40367854074805
aF30.78321369212762
aa(lp10
F-90.04125272133842
aF-39.92657249502486
aa(lp11
F59.58624536785477
aF-40.72530212685061
aa(lp12
F60.1859502516665
aF2.9365225160305206
aa(lp13
F60.41640582913756
aF33.70962887475963
aa(lp14
F-70.1745480965575
aF26.28691499253339
aa(lp15
F38.637132738363036
aF-67.40603181677571
aa(lp16
F-7.007460864219674
aF-23.380823392613006
aa(lp17
F45.540528203873514
aF-48.05989740497933
aa(lp18
F-35.37322859902627
aF53.04958508950781
aa(lp19
F50.10954332679212
aF6.406482900975611
aa(lp20
F-88.72568623908225
aF24.6308412243239
aa(lp21
F-43.2643059835345
aF6.9903610664775355
aa(lp22
F44.193698502404864
aF-26.946718486634353
aa(lp23
F23.287776010553937
aF-64.03748394527013
aa(lp24
F-79.63556248494014
aF-30.56701413231295
aa(lp25
F27.67162071665776
aF114.03672448651153
aa(lp26
F42.25514985668498
aF8.840728631512258
aa(lp27
F-70.34538950852883
aF34.52132210358768
aa(lp28
F4.536839145408904
aF50.11174151026632
aa(lp29
F32.162398702079045
aF4.952058011218729
aa(lp30
F-52.83513219046623
aF6.590462402113267
aa(lp31
F55.2950363467515
aF40.792307332936595
aa(lp32
F11.224252501999175
aF-72.11736730862461
aa(lp33
F74.86175656899148
aF48.295893328932344
aa(lp34
F-6.9113296249170055
aF47.46518750982923
aa(lp35
F25.612696396680363
aF11.27091766054331
aa(lp36
F85.76282778898648
aF1.8700366970966125
aa(lp37
F-52.5264035970617
aF-16.619470177283727
aa(lp38
F-43.58125377905975
aF-2.208577242190896
aa(lp39
F20.08661442672124
aF-44.8531278265084
aa(lp40
F-61.7208496590899
aF-17.33236928946552
aa(lp41
F37.83352839535245
aF-35.46192917220077
aa(lp42
F-22.71342885382266
aF50.86884828791412
aa(lp43
F3.7073222694038366
aF-49.77201544241046
aa(lp44
F53.33818405310931
aF-57.84738154209546
aa(lp45
F-69.23129448357902
aF-41.41812654496058
aa(lp46
F15.166171373756058
aF72.60248025212266
aa(lp47
F7.091500807860004
aF65.67209952084639
aa(lp48
F83.80482043455797
aF-5.28719323252234
aa(lp49
F-24.870058576578362
aF-9.55187732494232
aa(lp50
F71.86159494787067
aF28.640389386906893
aa(lp51
F76.5740411254164
aF-1.7086087148509537
aa(lp52
F59.428536181332724
aF13.471322530105901
aa(lp53
F-9.020820421908626
aF5.392161961428928
aa(lp54
F72.56795520297499
aF3.2639229894617445
aa(lp55
F81.33218270544798
aF7.369224833309611
aa(lp56
F-34.13328620269687
aF45.49769743878831
aa(lp57
F-41.26235491374275
aF43.90915364517283
aa(lp58
F-64.57255095948156
aF32.31925330159158
aa(lp59
F48.59627685873314
aF47.83869445317097
aa(lp60
F-32.373370066695244
aF32.48901083697455
aa(lp61
F22.60691846435984
aF-54.44008840918263
aa(lp62
F77.39801244007518
aF-11.66215757071806
aa(lp63
F-64.07069064758775
aF-31.3316379134923
aa(lp64
F-52.29932101609704
aF61.951209110998
aa(lp65
F46.43981613347426
aF15.327079720150744
aa(lp66
F-54.93655222107172
aF27.537042435938467
aa(lp67
F-72.46839996036698
aF-34.22402857857438
aa(lp68
F9.328904156510555
aF76.3068856326667
aa(lp69
F1.7287962598684623
aF20.46922370487932
aa(lp70
F93.62584036299307
aF3.6763256657706114
aa(lp71
F69.3015206486558
aF-18.639498964431098
aa(lp72
F-11.623835207001951
aF-54.90842298005293
aa(lp73
F11.937455960951398
aF60.375244556349465
aa(lp74
F65.34294638730616
aF8.634154405387708
aa(lp75
F-9.935634737813198
aF41.73453135423504
aa(lp76
F-52.416916057031145
aF-37.90899929709017
aa(lp77
F-69.66840559381012
aF-11.264572506437903
aa(lp78
F-82.32033254615456
aF3.7157589277601684
aa(lp79
F-27.415040097080016
aF-48.37431032545544
aa(lp80
F-61.35527843103684
aF9.134916433343648
aa(lp81
F-27.40767291293528
aF-41.53932937929217
aa(lp82
F44.207226074465225
aF-39.525054904691316
aa(lp83
F17.32837085532298
aF-38.31786198226636
aa(lp84
F-47.91025017307968
aF36.332624582552384
aa(lp85
F-54.07734737931812
aF46.260324311819765
aa(lp86
F-84.93760926043682
aF-21.014596196355033
aa(lp87
F-31.753191059266957
aF25.43795471773973
aa(lp88
F57.861855410485674
aF-14.011762113915816
aa(lp89
F64.32730442101061
aF-10.040121328613084
aa(lp90
F-33.530386251100566
aF-0.3393130108164109
aa(lp91
F-8.07356144410431
aF-41.66249572126367
aa(lp92
F-15.150967850192645
aF50.72861277307255
aa(lp93
F76.11993240237587
aF15.627115421055692
aa(lp94
F-38.77469096389737
aF-58.254132393751334
aa(lp95
F-55.99816485727643
aF-0.0283467344168962
aa(lp96
F-3.5103942185475328
aF61.443310108444564
aa(lp97
F80.17349903505092
aF-33.199103820067315
aa(lp98
F92.30531929345639
aF-5.468125485673655
aa(lp99
F34.59201040300473
aF-26.76246801143062
aa(lp100
F-8.683051506706297
aF24.481143773945075
aa(lp101
F-15.166737908385002
aF20.890653635814793
aa(lp102
F-59.74907460799621
aF-9.819744232415193
aa(lp103
F42.93974608685993
aF-15.986780236909233
aa(lp104
F10.59982313195013
aF-35.5799156199773
aa(lp105
F-16.65632032826554
aF-37.196861491825295
aa(lp106
F-23.650139512285264
aF24.18778728565048
aa(lp107
F-34.788377873347315
aF-31.827959458433245
aa(lp108
F-15.493904487131397
aF-13.03173032231933
aa(lp109
F3.2471642525522713
aF-60.30174876143089
aa(lp110
F-46.495602725167416
aF-21.612177432580435
aa(lp111
F-61.0676476318997
aF-24.010560565460477
aa(lp112
F-69.36399327554565
aF10.274698648864817
aa(lp113
F-27.29000592173916
aF45.9496889817649
aa(lp114
F69.53896576999841
aF-3.0711572866768595
aa(lp115
F1.8238886699677264
aF31.204710551397625
aa(lp116
F-50.194238117375455
aF-29.0104397093009
aa(lp117
F13.035247446229095
aF26.898536877864146
aa(lp118
F48.84131023293783
aF-14.141444572351423
aa(lp119
F9.331294018954834
aF15.55803715983566
aa(lp120
F-26.21380433084348
aF34.05896449379859
aa(lp121
F-50.72458354276398
aF-6.518207364875706
aa(lp122
F47.74910459301823
aF-2.1081094614164475
aa(lp123
F-34.81243940629256
aF-19.277528956401596
aa(lp124
F1.0223789270813073
aF-23.977146592233986
aa(lp125
F-14.037709872237667
aF-6.685130120506137
aa(lp126
F68.91882181261195
aF18.67904438046739
aa(lp127
F45.935392377707174
aF28.808948945992334
aa(lp128
F16.061081089441593
aF-12.488624310853154
aa(lp129
F-21.84490822017251
aF-1.7852116248536394
aa(lp130
F-53.36829505425476
aF-23.46575560842226
aa(lp131
F23.794158833411938
aF19.403839672352806
aa(lp132
F-43.407460003212314
aF-15.365552479055792
aa(lp133
F-24.068929812253067
aF-25.67519035811877
aa(lp134
F39.898437024190734
aF24.928811565643137
aa(lp135
F33.53900559211542
aF-55.81377574117853
aa(lp136
F-6.501310308714417
aF32.081429952022035
aa(lp137
F-13.844994810134741
aF1.6821955647860312
aa(lp138
F27.23915823549928
aF79.05454359479513
aa(lp139
F8.776008812621848
aF34.105883475547955
aa(lp140
F12.691295813208944
aF-45.31751734348281
aa(lp141
F59.117209132567325
aF-3.8404495752041727
aa(lp142
F1.204608631006042
aF69.42046273649325
aa(lp143
F17.76387356070688
aF-1.8480748552320665
aa(lp144
F-43.66054164018982
aF-36.07244071001663
aa(lp145
F30.748240123479196
aF-44.57462417257267
aa(lp146
F-34.71097085990753
aF11.487496748395849
aa(lp147
F32.465464235628616
aF29.122904481967584
aa(lp148
F30.804624770484157
aF43.84137293293044
aa(lp149
F24.599436239679687
aF0.5256534606295202
aa(lp150
F5.743274470841963
aF25.42417701641959
aa(lp151
F-22.794329580954845
aF-57.94305675401271
aa(lp152
F-2.7806525910865405
aF-69.82129827418572
aa(lp153
F6.965568548513492
aF3.4747659877027846
aa(lp154
F-39.11406254573388
aF-46.874133426362185
aa(lp155
F-6.023975497286126
aF-15.764431134036442
aa(lp156
F23.67100317419662
aF30.47968551865134
aa(lp157
F-41.63944662959777
aF70.27416612478979
aa(lp158
F8.611115551741275
aF-20.787996606566672
aa(lp159
F24.2318700240072
aF-34.93658868320723
aa(lp160
F17.848961036395924
aF48.27677526409453
aa(lp161
F-15.57067824608599
aF-45.16109392710275
aa(lp162
F-1.4273039500487328
aF43.10836278215531
aa(lp163
F-11.097368652959496
aF11.545228842281752
aa(lp164
F31.123532106080777
aF14.560623307704986
aa(lp165
F-17.818765875344564
aF-19.76339492732725
aa(lp166
F52.55863081415406
aF-7.218437692389048
aa(lp167
F-61.9257136733361
aF-41.414967702808326
aa(lp168
F39.41468986817345
aF1.1940422402777928
aa(lp169
F38.497084087708416
aF39.48615905300541
aa(lp170
F-19.0187473013923
aF30.80015024897899
aa(lp171
F-14.618194202564563
aF-27.834507576192912
aa(lp172
F31.23728459505544
aF-1.8964504659063197
aa(lp173
F9.013429797199363
aF-12.414233736762494
aa(lp174
F0.10885787312196805
aF-32.19920350695919
aa(lp175
F-3.405722073032004
aF-47.06044669781147
aa(lp176
F12.796130293267698
aF39.839852043100315
aa(lp177
F3.815737177353695
aF-5.433147498430358
aa(lp178
F-26.861501912856017
aF17.301226816897906
aa(lp179
F2.747934858176174
aF-41.30360325815688
aa(lp180
F-18.463387766550756
aF41.39606988025509
aa(lp181
F-20.234980628647133
aF62.716274060640266
aa(lp182
F-17.90182093854097
aF74.21865671483549
aa(lp183
F-4.2107517400879
aF1.3873958848784385
aa(lp184
F24.050826742164386
aF-13.062766061052336
aa(lp185
F25.18133874252861
aF-27.59860818496197
aa(lp186
F37.833250177048185
aF-12.016789801617614
aa(lp187
F-0.48577341418903874
aF-12.825360047907095
aa(lp188
F-41.70717848754569
aF22.026915462822398
aa(lp189
F52.520294132881546
aF-25.724557333149995
aa(lp190
F15.632248933555084
aF-27.505311242720158
aa(lp191
F-24.07422933494809
aF6.970128364746602
aa(lp192
F-59.535711596669444
aF18.923536111139114
aa(lp193
F-6.568658103393282
aF-34.2296440370019
aa(lp194
F-41.488344637572844
aF-26.44372993918032
aa(lp195
F-49.817490681707056
aF14.754931460280833
aa(lp196
F-6.55913128438466
aF18.764199889054108
aa(lp197
F0.31181362503858956
aF9.41472634272346
aa(lp198
F-47.741918111305424
aF26.553913042378543
aa(lp199
F-57.508109514879834
aF-33.70438795019584
aa(lp200
F14.442208738453951
aF7.5370790495284155
aa(lp201
F41.099078594565434
aF-5.792761042570537
aa(lp202
F49.24264419142935
aF61.67308152834864
aasS'error'
p203
F1.937400221824646
s.