(dp0
S'layout'
p1
(lp2
(lp3
F-50.45701922738394
aF-33.185496217600566
aa(lp4
F-46.723412346365464
aF-46.587299929817114
aa(lp5
F-6.396162325756242
aF55.34076648647567
aa(lp6
F-47.56955245195906
aF-7.807789757422533
aa(lp7
F12.743448034597712
aF-48.81979615297029
aa(lp8
F-5.0927995212485895
aF-65.0152526046383
aa(lp9
F-51.04961773514326
aF1.204271944713947
aa(lp10
F-71.71328449859324
aF-30.329184366417422
aa(lp11
F43.046003061161755
aF-40.58273726006185
aa(lp12
F43.192206849712804
aF4.558280384540724
aa(lp13
F57.71823630903755
aF19.10727031331491
aa(lp14
F-50.88890075654188
aF29.750547564960932
aa(lp15
F24.88039411351355
aF-51.5086777019096
aa(lp16
F-25.208978503116956
aF5.450174688107749
aa(lp17
F23.551316937267256
aF-43.76326148645354
aa(lp18
F-26.825773111283723
aF56.41129483909365
aa(lp19
F34.39294526235533
aF-1.2221837037941876
aa(lp20
F-49.92074210568857
aF16.89933862619075
aa(lp21
F-35.319171537950304
aF6.397233674551337
aa(lp22
F13.77923338499002
aF-35.42201019302592
aa(lp23
F12.98352577446579
aF-56.038672787219404
aa(lp24
F-55.30284564128049
aF-30.278313391521387
aa(lp25
F23.60828806364337
aF59.941231377748004
aa(lp26
F36.233302974765245
aF0.5249815260643498
aa(lp27
F-53.55060811531187
aF33.05052505229596
aa(lp28
F6.757175255344284
aF35.76408988990013
aa(lp29
F42.01860229385992
aF-17.16535453139469
aa(lp30
F-38.61228425856334
aF6.214823505688744
aa(lp31
F55.571246130060466
aF30.551708624450526
aa(lp32
F-7.536729020176794
aF-57.8977307419672
aa(lp33
F25.292586628276602
aF57.15868036293571
aa(lp34
F-6.993130644740814
aF50.51065660972262
aa(lp35
F22.08668054221567
aF33.598153988754476
aa(lp36
F64.1458588480641
aF0.512025508690046
aa(lp37
F-59.03930781382774
aF-12.343835060183958
aa(lp38
F-49.49797860153834
aF7.165108792968873
aa(lp39
F7.587679855085927
aF-39.46777693639222
aa(lp40
F-46.39982583401469
aF-15.538845979766645
aa(lp41
F40.656988380119465
aF-1.3300296139275325
aa(lp42
F-23.291412807062553
aF51.51978745218373
aa(lp43
F-39.506147132718795
aF0.2652102973859021
aa(lp44
F38.02017337615215
aF-44.97941463679816
aa(lp45
F-53.29244394931358
aF-35.11930040242734
aa(lp46
F-0.655486180558851
aF42.84871141774034
aa(lp47
F14.970414033754249
aF45.22808332887957
aa(lp48
F64.15579049289292
aF-2.736507039541694
aa(lp49
F-23.148786615287523
aF9.358371603730841
aa(lp50
F52.35553633758617
aF14.468103901590485
aa(lp51
F60.469326669823104
aF8.47088423006534
aa(lp52
F49.754261198057534
aF12.49801431392369
aa(lp53
F27.677493053393295
aF97.5122692100055
aa(lp54
F62.361640522110804
aF8.452030502029528
aa(lp55
F61.192818116355866
aF-0.7435966921238975
aa(lp56
F-32.971867113846024
aF52.82107154356084
aa(lp57
F-24.214966883736363
aF46.28074549295545
aa(lp58
F-51.37924120489501
aF34.11953131488569
aa(lp59
F33.74288557633756
aF45.76083078069657
aa(lp60
F-44.9744278114255
aF21.41860240197708
aa(lp61
F7.764585497228046
aF-53.76318219785839
aa(lp62
F56.845750993596624
aF-1.6125034843087886
aa(lp63
F-60.43526944398831
aF-24.572840445497803
aa(lp64
F3.736002007334328
aF58.70830116722526
aa(lp65
F41.979266204257556
aF10.767933176310777
aa(lp66
F-30.67816430947059
aF32.003115634008935
aa(lp67
F-46.26712436160514
aF-30.932896208112673
aa(lp68
F2.582584551254583
aF45.191945767816186
aa(lp69
F-29.375093288712346
aF8.708387817854732
aa(lp70
F68.59807358892513
aF-2.870505880147731
aa(lp71
F59.49746449309673
aF-10.817225127477087
aa(lp72
F-32.788926873360445
aF-41.643196422806646
aa(lp73
F18.30944497580083
aF47.494999081965005
aa(lp74
F50.777465070014
aF9.584665686969686
aa(lp75
F-10.384774506548155
aF54.06628721131435
aa(lp76
F-58.175251297789636
aF-17.793962291070486
aa(lp77
F-52.45987302650828
aF-7.658625051177723
aa(lp78
F-58.892125868742525
aF3.7917341110785796
aa(lp79
F-20.007315533446278
aF-37.80828886516686
aa(lp80
F-33.06873628260012
aF8.100211540635232
aa(lp81
F-21.164356033543957
aF-33.405861272031174
aa(lp82
F-0.6816344369049903
aF-44.12920425036432
aa(lp83
F8.039514757991261
aF-36.149526390776586
aa(lp84
F-43.09455361013898
aF38.09981473736132
aa(lp85
F-20.54647650893632
aF39.7780233434112
aa(lp86
F-67.82680092398368
aF-16.163195827436773
aa(lp87
F-44.13730775371563
aF17.88365901859859
aa(lp88
F42.16056878538523
aF1.8046882183730069
aa(lp89
F39.28018759084334
aF2.753466584138387
aa(lp90
F-33.60004885055471
aF2.5556197431886436
aa(lp91
F-5.0508617709017205
aF-40.135043921074356
aa(lp92
F-13.433914259611907
aF56.2350109086357
aa(lp93
F70.212813351189
aF1.254701954365863
aa(lp94
F-43.37744550067154
aF-29.56620137086384
aa(lp95
F-56.813142512330316
aF-1.427180465025463
aa(lp96
F6.0402503179141975
aF40.377010748410804
aa(lp97
F47.0379434336555
aF-21.388589956336723
aa(lp98
F67.71550453823815
aF-6.472480034954385
aa(lp99
F41.4319923577629
aF-34.93987058090459
aa(lp100
F-14.893837636761866
aF38.93503523784499
aa(lp101
F-19.799643750492105
aF35.020420602651356
aa(lp102
F-48.38789509438645
aF-11.70639023864705
aa(lp103
F49.4999706633787
aF-9.07188206059272
aa(lp104
F14.76713812900584
aF-54.03004095643759
aa(lp105
F0.3059297001950526
aF-48.10824037463863
aa(lp106
F-29.584269551530568
aF37.93967705063099
aa(lp107
F-43.87830275017639
aF-32.94076563734352
aa(lp108
F-51.14153029161471
aF10.086107160112089
aa(lp109
F22.723732597643746
aF-59.62212469457133
aa(lp110
F-58.023420491994194
aF-20.786378637846934
aa(lp111
F-47.83639352607275
aF-21.69028502523323
aa(lp112
F-36.11443774443316
aF9.605866728204397
aa(lp113
F-22.78795865745171
aF53.28979967549567
aa(lp114
F58.0137904560077
aF3.4280348750359964
aa(lp115
F-25.959997431639973
aF13.158526219323939
aa(lp116
F-58.8063077821314
aF-8.152644748475245
aa(lp117
F-22.2793406297707
aF4.453737605472357
aa(lp118
F52.284597153768985
aF-7.670509032710368
aa(lp119
F-44.81550381081757
aF8.688500317148229
aa(lp120
F-42.26314944632848
aF25.182183222580782
aa(lp121
F-25.937959458326286
aF-9.521446760809816
aa(lp122
F56.1111873088717
aF-11.129787418381085
aa(lp123
F-50.26209547661665
aF-22.664150433423526
aa(lp124
F-41.27654734633539
aF-31.035466486561006
aa(lp125
F-56.2437530520899
aF-23.924594275753034
aa(lp126
F71.9781605301635
aF3.0252856573509366
aa(lp127
F42.17371994270024
aF44.47481818806324
aa(lp128
F14.92678320865903
aF-16.453444770422298
aa(lp129
F-2.840993224278606
aF-45.77351074564815
aa(lp130
F-55.939875352863744
aF-7.602681106915735
aa(lp131
F33.91023056914307
aF25.281136433957546
aa(lp132
F-61.50013171340509
aF-21.46577266277597
aa(lp133
F26.02369770392958
aF22.42707989936901
aa(lp134
F46.51282853873878
aF43.98568764458663
aa(lp135
F36.29191106836936
aF-34.91856010230426
aa(lp136
F-21.532945978663953
aF10.758220384070993
aa(lp137
F17.852390347733355
aF-11.673542846650172
aa(lp138
F11.360858466326453
aF68.32093204190674
aa(lp139
F-35.06939123620375
aF12.151350529904981
aa(lp140
F8.307042751633597
aF-42.19898973417083
aa(lp141
F47.16977513564997
aF9.196913472973849
aa(lp142
F15.555721851662696
aF40.78146003610603
aa(lp143
F34.139605703547446
aF2.6877313305879054
aa(lp144
F-35.6481509096121
aF-21.583268105375403
aa(lp145
F13.37770512176876
aF-19.892412952334336
aa(lp146
F-46.80253294049833
aF15.196496366377158
aa(lp147
F42.31969230877018
aF20.72227723297681
aa(lp148
F26.41000710890582
aF31.10816159438509
aa(lp149
F36.94615512243082
aF-2.0259165670208805
aa(lp150
F-30.181925375954023
aF4.4164584518328995
aa(lp151
F-24.681328408582864
aF-17.832875160329966
aa(lp152
F-36.20073344105974
aF-16.744897443868688
aa(lp153
F68.49383681072416
aF16.316712255479175
aa(lp154
F-23.116213700365822
aF-52.968000733783406
aa(lp155
F-40.349949077390576
aF-21.344339780350996
aa(lp156
F38.47939171799844
aF9.89915014576347
aa(lp157
F-46.831040939114985
aF53.220746672930055
aa(lp158
F-33.52143794902179
aF0.0026220264937122364
aa(lp159
F0.22682409846665774
aF-22.417237290233736
aa(lp160
F30.217124396315757
aF37.48506241508314
aa(lp161
F4.150772660661381
aF-50.03648536179179
aa(lp162
F-14.89341584221087
aF53.614168272101786
aa(lp163
F28.350738008571387
aF-9.934232806002951
aa(lp164
F22.10050276150058
aF28.57077190946644
aa(lp165
F2.4814540097638114
aF-57.78003349613166
aa(lp166
F51.86711352145336
aF-12.42916206309449
aa(lp167
F-49.195865349048084
aF-35.885216474452776
aa(lp168
F64.49563875080604
aF6.00330364426099
aa(lp169
F6.3180338807892085
aF51.09251638444217
aa(lp170
F-47.24707719569757
aF19.386955519535597
aa(lp171
F-22.611230623278576
aF-15.798024240575621
aa(lp172
F37.38642840327878
aF-4.823091711922016
aa(lp173
F34.58563851922458
aF-15.750071201517448
aa(lp174
F-54.973827109734735
aF-2.101533183184793
aa(lp175
F7.341214396983263
aF-44.806209119475284
aa(lp176
F-32.80054311866699
aF5.129169811859988
aa(lp177
F-8.687894014517697
aF-42.93968295896868
aa(lp178
F-32.868935618404095
aF21.257783878860387
aa(lp179
F-41.46999993166983
aF3.7968979987026836
aa(lp180
F-18.15475155872771
aF42.634078531853945
aa(lp181
F-20.349985215195872
aF69.98046957460886
aa(lp182
F16.455688602321995
aF58.205884220120204
aa(lp183
F14.796390721249912
aF-14.237194368517205
aa(lp184
F27.190618750351025
aF-32.94795435005587
aa(lp185
F11.360818448125253
aF-55.37239020426803
aa(lp186
F45.802766157019256
aF-9.863058919817469
aa(lp187
F-38.27449689457739
aF-14.062789513465937
aa(lp188
F-44.641687329109736
aF35.64490212916075
aa(lp189
F43.29714993501431
aF-28.317072848743955
aa(lp190
F9.434603761208432
aF-30.382452077179693
aa(lp191
F5.094787864228808
aF-34.9434498036404
aa(lp192
F-55.59838735308718
aF11.728521692423753
aa(lp193
F5.657381468521045
aF-40.89509259601156
aa(lp194
F-46.069972938445936
aF-17.91241250796028
aa(lp195
F-67.2593051655932
aF-2.316742780310737
aa(lp196
F-12.78671096600377
aF36.38015439448726
aa(lp197
F-34.90447772885889
aF30.014710065377287
aa(lp198
F-32.3139053928446
aF38.78249636199612
aa(lp199
F-55.02935576609292
aF-20.055078056826957
aa(lp200
F-16.816949965131638
aF-55.488210032147315
aa(lp201
F34.165614803884495
aF-3.775831994062401
aa(lp202
F27.788526865220707
aF51.732980508763944
aa(lp203
F1.6502724346667674
aF-44.054110221375765
aa(lp204
F20.372474504553967
aF31.226792921812066
aa(lp205
F-17.448851599643906
aF0.5293541506975528
aa(lp206
F19.629312871903707
aF-24.381009119383467
aa(lp207
F51.720754806018945
aF23.406498386394716
aa(lp208
F-38.258211531979754
aF-17.37317881217285
aa(lp209
F-40.788170457082714
aF-27.971331690521385
aa(lp210
F26.496594604128806
aF45.42477549051822
aa(lp211
F30.352187767937156
aF-11.345141638159392
aa(lp212
F19.605017033400358
aF9.984323095339878
aa(lp213
F15.98823660189151
aF-48.14643420310369
aa(lp214
F30.16172787073539
aF-19.352562468053648
aa(lp215
F-19.886647430697423
aF4.751081647108171
aa(lp216
F49.75859687243399
aF7.377661734692599
aa(lp217
F30.436738000212156
aF-38.31963382691059
aa(lp218
F64.70548876862375
aF24.819400467109148
aa(lp219
F33.67456008222714
aF-29.12520530452733
aa(lp220
F23.009220541601007
aF30.610205008692944
aa(lp221
F38.92374553277432
aF22.971273179448026
aa(lp222
F25.34869386665508
aF-17.358441370359586
aa(lp223
F-30.67887207639431
aF50.89206426850534
aa(lp224
F-45.32554045377775
aF-28.30416053348835
aa(lp225
F38.879988060979954
aF33.2700548379543
aa(lp226
F-43.2749140495493
aF-17.73897901768771
aa(lp227
F66.80590400997147
aF-10.079599705927004
aa(lp228
F10.782005894057827
aF-39.28352563197638
aa(lp229
F35.9409755562023
aF-9.984568804112119
aa(lp230
F50.818274483098
aF-3.263604844785931
aa(lp231
F-45.720593709364955
aF-25.75550380771537
aa(lp232
F-37.43519606268971
aF-50.371463720166616
aa(lp233
F15.314412917909621
aF35.6603698315098
aa(lp234
F-7.595923758676966
aF25.70072876032779
aa(lp235
F-19.11934767567041
aF-40.32593687053408
aa(lp236
F67.39996249627796
aF3.338936935859228
aa(lp237
F35.496583071873786
aF4.432510724881103
aa(lp238
F56.28881649236633
aF4.911982729713664
aa(lp239
F13.054163991292885
aF2.158978361727894
aa(lp240
F-33.96050672778545
aF-28.864565296123
aa(lp241
F29.68197073004009
aF-30.654405396532503
aa(lp242
F-22.689713842629715
aF-63.45426065590018
aa(lp243
F-25.501203525305957
aF10.09827369425166
aa(lp244
F1.7539461858866414
aF54.19575703885836
aa(lp245
F44.32862043063575
aF19.29198100329711
aa(lp246
F-3.783327286351594
aF-36.2261250414387
aa(lp247
F-15.64052938409326
aF35.4205413053256
aa(lp248
F-49.41598314904086
aF-19.933398283433306
aa(lp249
F-44.10841410107843
aF-20.62808579193249
aa(lp250
F-24.487096689933992
aF32.39064010513067
aa(lp251
F-36.67322577365366
aF14.484435369413543
aa(lp252
F28.221495894485443
aF-21.441917718850068
aa(lp253
F-37.4574579523221
aF24.530022895061343
aa(lp254
F29.768466608690957
aF-15.13438977914208
aa(lp255
F-10.358987941714673
aF-32.57429219017835
aa(lp256
F-23.24099677973461
aF55.260463698642795
aa(lp257
F-7.472234360094625
aF-17.05039557527538
aa(lp258
F42.85672495585741
aF-15.533692824823838
aa(lp259
F-28.573527097435413
aF23.95938735092478
aa(lp260
F26.820545458346004
aF-14.508563391831363
aa(lp261
F44.94912147206229
aF-29.316217497309864
aa(lp262
F18.052391227919152
aF-16.561988136828017
aa(lp263
F9.62495904738985
aF-22.130347487010795
aa(lp264
F65.22911828763374
aF-6.368858440802483
aa(lp265
F-11.726870355012178
aF50.90234753750956
aa(lp266
F-14.507103959393888
aF51.18868705166549
aa(lp267
F-41.71022586284562
aF35.65248776944368
aa(lp268
F18.497127983412252
aF39.0298250422388
aa(lp269
F47.17143174071086
aF20.52574881793611
aa(lp270
F11.151037210624358
aF34.87815344707432
aa(lp271
F61.26487523267119
aF14.904279425997887
aa(lp272
F37.19899886767092
aF15.159482810777035
aa(lp273
F13.113505039709194
aF-12.239977436987894
aa(lp274
F-48.0324721379726
aF-28.07771187884522
aa(lp275
F23.25722245134644
aF42.63572873111437
aa(lp276
F30.75807841476479
aF-6.139769648155408
aa(lp277
F25.335129616893063
aF-33.32610324586162
aa(lp278
F26.6710190062032
aF27.106679282845896
aa(lp279
F27.900510659758936
aF24.012751973595776
aa(lp280
F-5.679733274733498
aF-15.91245289564491
aa(lp281
F-11.28870798266348
aF-53.39973137947122
aa(lp282
F32.142684630308835
aF-47.60265461414458
aa(lp283
F44.550339119516416
aF-1.2886133792823293
aa(lp284
F-51.63141779947216
aF-30.547048864017427
aa(lp285
F-43.80577062789337
aF-15.092733696532784
aa(lp286
F0.6883120339126767
aF-38.51627705886031
aa(lp287
F11.904412464848875
aF-18.484804346110156
aa(lp288
F26.399709515317596
aF-64.82518124331246
aa(lp289
F-25.703433556790245
aF36.17023628674093
aa(lp290
F23.979014160793692
aF24.605979972949093
aa(lp291
F-5.544471883315615
aF-19.0117539161814
aa(lp292
F-42.99023762728995
aF-26.331044721020326
aa(lp293
F-48.25480217083816
aF-1.2511687660139086
aa(lp294
F-48.81053728337507
aF-5.2138049794538395
aa(lp295
F9.7768276761441
aF37.94333060662275
aa(lp296
F-25.286781261360165
aF24.003455174767602
aa(lp297
F-30.914745127437588
aF6.674099342270827
aa(lp298
F46.70420796169353
aF25.814355037161494
aa(lp299
F-47.32604519279614
aF2.596621548263034
aa(lp300
F-6.454954867570175
aF-47.78375938293121
aa(lp301
F15.31687784463652
aF4.317613848665361
aa(lp302
F61.25550963933472
aF-4.19459805984615
aa(lp303
F24.037785815304908
aF17.093046234658825
aa(lp304
F-26.30237981561692
aF-14.786813327500429
aa(lp305
F16.421549254402912
aF-19.38130933044325
aa(lp306
F-30.497588457344186
aF1.7954332644412956
aa(lp307
F48.98811838450828
aF30.841450233667366
aa(lp308
F-3.0452679500612274
aF10.743984414948839
aa(lp309
F25.718782506523176
aF-22.300132330164637
aa(lp310
F41.16487693461906
aF15.066072924568358
aa(lp311
F21.755613141480886
aF-15.125535084236112
aa(lp312
F-7.644806512912864
aF-26.575950878894446
aa(lp313
F4.415668331672928
aF6.386513764093608
aa(lp314
F33.07655521204555
aF15.749938474409458
aa(lp315
F-22.537459699175283
aF49.10725925518909
aa(lp316
F-30.28135871649368
aF-31.51830029982055
aa(lp317
F0.5096442363536657
aF25.176973403512665
aa(lp318
F27.22233614184853
aF8.020935345031715
aa(lp319
F-29.355621501292397
aF-21.350187648979407
aa(lp320
F52.18995052181218
aF17.60885741924775
aa(lp321
F36.16000566108868
aF-20.664314964509952
aa(lp322
F-5.2942631117475765
aF-9.795662822741134
aa(lp323
F35.68222135199192
aF19.773449511710407
aa(lp324
F26.366429117706723
aF-0.8451790237370478
aa(lp325
F17.802512646914014
aF34.005494840433514
aa(lp326
F-1.0407288015490748
aF-50.15219453285087
aa(lp327
F10.053310966114786
aF-1.8692855203624308
aa(lp328
F-2.433260365379128
aF-11.893251703131027
aa(lp329
F-44.501691004082126
aF5.319413310804923
aa(lp330
F-40.82971969984087
aF-7.9393945337031555
aa(lp331
F6.773600284538452
aF0.7151961267869055
aa(lp332
F18.467803109502874
aF29.476805413635407
aa(lp333
F-34.042067152768624
aF15.840761108723267
aa(lp334
F26.019035078652184
aF-11.885000433300464
aa(lp335
F-4.551020729379472
aF-43.334640451259745
aa(lp336
F-6.201446128744699
aF-24.698802481794868
aa(lp337
F-19.24870417233103
aF17.773322243830158
aa(lp338
F14.680305775998464
aF8.933333513798694
aa(lp339
F3.905221840038427
aF22.979557791496756
aa(lp340
F-11.21927579502398
aF45.02302222869601
aa(lp341
F-54.04566600927683
aF-9.902447613073713
aa(lp342
F-2.8055062367864663
aF40.85583209549719
aa(lp343
F-42.69967513797118
aF0.28555255117272843
aa(lp344
F41.04189479668131
aF-23.34738580190081
aa(lp345
F-36.77272013750893
aF2.8618934572946473
aa(lp346
F-1.900526148129876
aF-42.27291235635816
aa(lp347
F-28.45882280348368
aF6.029784596421099
aa(lp348
F1.4982898211767677
aF9.01019408889669
aa(lp349
F-20.065658571505033
aF52.51185408554906
aa(lp350
F23.753526515007557
aF-24.195507548177382
aa(lp351
F30.413081111357815
aF30.524222000847832
aa(lp352
F49.211116408213286
aF1.739892042994275
aa(lp353
F-3.190017491735296
aF-27.88450144714402
aa(lp354
F5.388697012147979
aF-37.828569892804815
aa(lp355
F-42.165705212632915
aF15.361809390728261
aa(lp356
F5.279068733407948
aF-18.655568570856296
aa(lp357
F54.32624846118347
aF5.8523541214168375
aa(lp358
F-43.77145326535574
aF-6.946739218114285
aa(lp359
F40.77242081488461
aF5.986081472710169
aa(lp360
F-3.644986357288628
aF-22.124163721177347
aa(lp361
F16.55536306542533
aF-1.7661530319960685
aa(lp362
F-15.687485165280956
aF-31.142171043124826
aa(lp363
F-20.565781906191262
aF7.497752941886977
aa(lp364
F-13.715689989438218
aF48.18968557910625
aa(lp365
F31.877018140973888
aF-2.634223200827989
aa(lp366
F27.232920651383896
aF3.2321236472991455
aa(lp367
F-22.551377433186975
aF6.607249974150414
aa(lp368
F10.175850692015162
aF0.17641432403180363
aa(lp369
F-18.527850628388688
aF48.06638917098823
aa(lp370
F42.395054806103246
aF27.088750531765797
aa(lp371
F60.69996623499785
aF14.443478220597232
aa(lp372
F-12.92915535732322
aF39.40095290465247
aa(lp373
F11.955133016703423
aF-49.57571998018925
aa(lp374
F50.56930470938906
aF5.3519648064589855
aa(lp375
F-55.32683418563403
aF-17.029473369628843
aa(lp376
F-45.22276504680401
aF-3.055345610777305
aa(lp377
F15.332538713322279
aF17.993785659264372
aa(lp378
F14.421435739930887
aF31.751356103088675
aa(lp379
F21.818731145185836
aF14.050382696197106
aa(lp380
F-2.094647594894431
aF-39.64350502646733
aa(lp381
F-5.190621063882808
aF-28.960712228912083
aa(lp382
F-41.587181968003506
aF22.99625710823761
aa(lp383
F1.4636708774613458
aF31.58894144885297
aa(lp384
F11.975966258026354
aF4.929400751784967
aa(lp385
F0.5472905468913536
aF-41.65388635312781
aa(lp386
F53.249738353983176
aF0.5028099230806418
aa(lp387
F-15.51144141899832
aF-47.11356393008482
aa(lp388
F-11.20141895994354
aF29.329326419278267
aa(lp389
F-19.537113280331173
aF25.405552259082526
aa(lp390
F-20.23086389122323
aF46.76699250103782
aa(lp391
F5.382927739331283
aF7.383601782003515
aa(lp392
F-7.677178348954069
aF47.40212715806947
aa(lp393
F-13.87793277817983
aF0.5459109807970601
aa(lp394
F-42.50985743815436
aF9.922297729937162
aa(lp395
F6.267755832778142
aF28.815433187676327
aa(lp396
F-40.322867661057444
aF11.084920633053235
aa(lp397
F-8.392319394548185
aF-4.26561345864772
aa(lp398
F23.432585620730304
aF-9.065337111465672
aa(lp399
F-31.60482973825794
aF-9.711551058069777
aa(lp400
F28.306993110954576
aF13.481866383060476
aa(lp401
F1.9678212067993397
aF-26.439577330210604
aa(lp402
F-13.84184034270686
aF-10.297718862191708
aa(lp403
F13.158366395995237
aF-9.200817827299328
aa(lp404
F-4.810974909895145
aF-1.8332148055766293
aa(lp405
F-20.991482067027697
aF-7.206858335610188
aa(lp406
F-8.604820586921448
aF-37.175736957967366
aa(lp407
F-19.51799059078289
aF-23.438091699787137
aa(lp408
F7.830297220682865
aF-5.470557328490538
aa(lp409
F28.55712985441505
aF-12.901348264785742
aa(lp410
F-10.630585249756043
aF-7.359408898950889
aa(lp411
F-24.92436319864148
aF2.2454631414987225
aa(lp412
F34.77555031743793
aF12.11902615648361
aa(lp413
F-23.855738415442403
aF-13.342292044160407
aa(lp414
F-7.881603557767644
aF3.597211291967562
aa(lp415
F-15.45232120293987
aF16.4896761223346
aa(lp416
F22.370883777209222
aF-33.78424597823109
aa(lp417
F20.296116794963353
aF-4.563950933189726
aa(lp418
F-6.3462711505926865
aF2.1608961371364748
aa(lp419
F-23.42837066966886
aF-7.266254322253548
aa(lp420
F-18.919942080337183
aF-15.615828515379084
aa(lp421
F47.356425590044346
aF-5.068674522340376
aa(lp422
F-22.88906816008174
aF16.315513758282908
aa(lp423
F-15.278436249657366
aF26.032945190593235
aa(lp424
F-9.348470692744312
aF-1.6941470571402972
aa(lp425
F-28.205925919668683
aF-27.563007645045257
aa(lp426
F-3.132155666595172
aF21.71914297541255
aa(lp427
F1.7216156330390144
aF14.092196231045781
aa(lp428
F1.4021752187883192
aF-12.725535050100897
aa(lp429
F7.338477280566711
aF17.836487445486508
aa(lp430
F9.971500677450695
aF-26.56183486638972
aa(lp431
F32.24731300222239
aF0.1561597980775425
aa(lp432
F-6.251955539348802
aF37.02094799307167
aa(lp433
F18.407581039883997
aF-31.259828247996317
aa(lp434
F3.5912845595641696
aF-2.0916850964527476
aa(lp435
F-26.702366789344776
aF30.854941641092193
aa(lp436
F5.605963931932821
aF-26.10917334492891
aa(lp437
F-2.4719402298256847
aF-5.883392023699594
aa(lp438
F-8.797323000900581
aF-28.919133028905268
aa(lp439
F-22.2219534869198
aF20.418115274738025
aa(lp440
F31.315215584115254
aF4.203559187403516
aa(lp441
F-9.718636891139822
aF16.760351228383332
aa(lp442
F-36.3023348562398
aF-30.403855210228194
aa(lp443
F-16.149123741511517
aF-4.268547068867076
aa(lp444
F-28.946565920483497
aF-4.376840468902542
aa(lp445
F-0.3873572432709631
aF16.50552133999135
aa(lp446
F-4.667575832576891
aF14.975498459493306
aa(lp447
F20.602902450561803
aF1.5788936739551207
aa(lp448
F-0.2369278589153493
aF-2.9070975894668996
aa(lp449
F-10.501073800350657
aF-23.02971556768571
aa(lp450
F12.211118005922431
aF-15.331846329128787
aa(lp451
F6.232076475941936
aF-9.771989615958285
aa(lp452
F-21.67229118963358
aF-9.704296396577035
aa(lp453
F-0.4313137677648765
aF-17.321257901462474
aa(lp454
F-7.897176334802072
aF12.59979442817347
aa(lp455
F23.977275424025578
aF9.478095876509126
aa(lp456
F38.7248473543345
aF-13.096357287803551
aa(lp457
F-14.350534890847102
aF-19.509172948812022
aa(lp458
F-22.640179513440625
aF-1.6301445164399113
aa(lp459
F18.856309593649105
aF5.102242591321165
aa(lp460
F19.926640603909696
aF27.530239017695923
aa(lp461
F10.391807383173136
aF22.459395031620282
aa(lp462
F-15.019843880399439
aF12.70030859181413
aa(lp463
F13.924506544244636
aF-3.973955846539891
aa(lp464
F34.571316944643065
aF-7.495961213872571
aa(lp465
F7.043209900293357
aF5.22062186597924
aa(lp466
F15.085608389363143
aF12.827501267582786
aa(lp467
F23.230624460001735
aF2.156697659308939
aa(lp468
F2.7264364344035643
aF2.221256966278283
aa(lp469
F17.218369420132525
aF-14.362414030907466
aa(lp470
F-2.0608505124257674
aF3.503024077223532
aa(lp471
F-22.035854082311293
aF0.2183573370280254
aa(lp472
F-26.832444564415667
aF0.6755526774607034
aa(lp473
F-29.758731993333196
aF-17.05820259054815
aa(lp474
F-3.907600307417205
aF28.503760326580164
aa(lp475
F30.40945957828719
aF7.405707612677476
aa(lp476
F27.896489349087133
aF-26.44290495402101
aa(lp477
F15.32797982579025
aF25.369958256918522
aa(lp478
F10.139387364266529
aF32.233186177215245
aa(lp479
F-4.185088426920821
aF6.874764724811117
aa(lp480
F-9.898619009582312
aF48.814266985346094
aa(lp481
F-0.5790990860915791
aF-7.28924969801891
aa(lp482
F24.207851667692537
aF-4.166518727902243
aa(lp483
F-31.92759079414934
aF10.850878817197758
aa(lp484
F-12.692644492790608
aF4.203037919268531
aa(lp485
F8.453429999482871
aF14.064714159889578
aa(lp486
F-15.08492490129475
aF-25.262593693391217
aa(lp487
F8.518198383122504
aF-12.873712005058762
aa(lp488
F-14.47020360369356
aF9.681766709797907
aa(lp489
F-11.687342390537436
aF-3.066211237640357
aa(lp490
F0.060029989905551646
aF-31.435992758007384
aa(lp491
F-9.982221692254262
aF21.990959376323055
aa(lp492
F11.192674133224378
aF9.144173663181268
aa(lp493
F-9.533142525996041
aF51.168676371963244
aa(lp494
F36.576486933634186
aF6.943581734930118
aa(lp495
F17.492689494379277
aF-7.477411052808145
aa(lp496
F20.19245102089841
aF-38.558074519927466
aa(lp497
F-12.70997254090199
aF-15.645835263892671
aa(lp498
F-32.39987526167421
aF-34.46255359179743
aa(lp499
F1.4354944275907742
aF21.218382574190475
aa(lp500
F-28.264677654326523
aF17.75818892885322
aa(lp501
F-16.82550956245785
aF5.597800863269252
aa(lp502
F46.7952046473001
aF4.721766681102251
aasS'error'
p503
F1.9262759685516357
s.