(dp0
S'layout'
p1
(lp2
(lp3
F-56.17784706199134
aF-37.00677918432825
aa(lp4
F-48.43010470139284
aF-55.452214672247145
aa(lp5
F-8.463206158042391
aF61.147149527313715
aa(lp6
F-52.926097877270635
aF-2.3164815325948354
aa(lp7
F21.60770413656934
aF-46.129922052197024
aa(lp8
F-13.484649519429759
aF-70.25860414614762
aa(lp9
F-51.699785409752565
aF22.198197615568816
aa(lp10
F-82.60095238172839
aF-33.08548727397232
aa(lp11
F55.753105631319116
aF-41.86475841779414
aa(lp12
F58.26057326252517
aF-8.94328520661408
aa(lp13
F57.60102073608958
aF28.699395401406015
aa(lp14
F-65.19923592983864
aF31.935631516964673
aa(lp15
F28.28313296694848
aF-62.63790131143001
aa(lp16
F-18.43377527259691
aF-13.234172007411086
aa(lp17
F34.31552363840231
aF-31.711470698981554
aa(lp18
F-32.43215080307449
aF51.501880068089896
aa(lp19
F47.074605077197795
aF0.024957882547007777
aa(lp20
F-66.22916852338473
aF21.583853165586266
aa(lp21
F-42.20902890861413
aF9.072594119884926
aa(lp22
F41.93121622289698
aF-34.10015200438146
aa(lp23
F18.539735682278945
aF-42.62893499371323
aa(lp24
F-67.35987076205208
aF-28.745229602352524
aa(lp25
F30.20968623036321
aF93.3597799929804
aa(lp26
F40.1210041421246
aF2.732519545820666
aa(lp27
F-67.78056794189804
aF37.04000150740879
aa(lp28
F3.214233312476492
aF43.57101356368436
aa(lp29
F38.89638047565307
aF-9.686750138564038
aa(lp30
F-46.72231955727173
aF5.73975732052449
aa(lp31
F53.975328449957544
aF40.35106068220994
aa(lp32
F-3.020658265592864
aF-63.9920352741364
aa(lp33
F49.321497681724004
aF72.79159896840285
aa(lp34
F-12.377044375753187
aF56.41167561388534
aa(lp35
F12.9946527078101
aF31.541800198311247
aa(lp36
F77.98030209701791
aF-0.24087542594651637
aa(lp37
F-54.60575273079782
aF-15.448930173730112
aa(lp38
F-44.79748345599743
aF-2.0175478270800316
aa(lp39
F14.209215244809764
aF-48.183347418891806
aa(lp40
F-45.331884004308264
aF-18.858187948416344
aa(lp41
F44.68427857298504
aF-23.397047056864412
aa(lp42
F-25.85767994343627
aF55.201970071044414
aa(lp43
F-15.94601627328912
aF-30.36478216577221
aa(lp44
F44.24155558788904
aF-50.21724493513287
aa(lp45
F-58.18651025884615
aF-41.510026786270664
aa(lp46
F9.440409155919031
aF68.85019244684806
aa(lp47
F12.743539768706112
aF52.772941665537424
aa(lp48
F75.82876187252955
aF-5.076030821236647
aa(lp49
F-24.300514542280776
aF8.585892249646843
aa(lp50
F63.55873998387985
aF22.281252032276427
aa(lp51
F69.72407427396838
aF-5.173560027434427
aa(lp52
F60.019665409879806
aF17.443088062645934
aa(lp53
F34.85417461871532
aF136.6998823420867
aa(lp54
F66.25488804019619
aF-7.845619537435156
aa(lp55
F72.713943859185
aF-0.3644482897879536
aa(lp56
F-30.016323708557085
aF44.81882169962989
aa(lp57
F-35.39147592444754
aF45.26091822433099
aa(lp58
F-63.28246359503201
aF37.668250677757804
aa(lp59
F46.773134198332635
aF47.62094593987924
aa(lp60
F-34.73381323785295
aF22.688060236910122
aa(lp61
F22.78723677800694
aF-51.695852275706386
aa(lp62
F74.60490214837338
aF-14.872646856758392
aa(lp63
F-60.26246454350887
aF-28.96314569133047
aa(lp64
F-36.12187950971257
aF59.407386434645815
aa(lp65
F35.454749613035304
aF6.954985105186408
aa(lp66
F-50.55788514252597
aF34.863270729973394
aa(lp67
F-63.12599674945647
aF-35.055417219756556
aa(lp68
F5.803447782159041
aF65.48176931238993
aa(lp69
F-20.095028649245602
aF22.816177869222457
aa(lp70
F83.7365091003128
aF-2.081367488091072
aa(lp71
F67.40356592455204
aF-20.469720666898173
aa(lp72
F-22.732845969207887
aF-60.04436437383702
aa(lp73
F17.07102690049946
aF50.05251344576179
aa(lp74
F60.722857096519554
aF10.972535224963615
aa(lp75
F-17.13196386768075
aF53.491878867778354
aa(lp76
F-53.31934734755758
aF-28.324491119553574
aa(lp77
F-60.15767646833752
aF-5.496729879465347
aa(lp78
F-69.34078185843961
aF1.233739909833319
aa(lp79
F-26.28515434075155
aF-50.55863081070024
aa(lp80
F-46.83462574369924
aF13.014558166793938
aa(lp81
F-33.002189061120326
aF-51.04642861656002
aa(lp82
F4.400143405944597
aF-41.51890306352991
aa(lp83
F10.257693421964243
aF-44.54353353304394
aa(lp84
F-42.580193613302306
aF41.536540125656735
aa(lp85
F-41.58345052760821
aF49.73954644901198
aa(lp86
F-73.80345295829524
aF-20.580627269772613
aa(lp87
F-38.501623654475225
aF20.182681240482946
aa(lp88
F57.83984830491878
aF-13.967229310181573
aa(lp89
F54.18139002405003
aF-5.039526543957039
aa(lp90
F-39.343115177565636
aF13.743981314672432
aa(lp91
F1.4131427339478506
aF-35.94472709520958
aa(lp92
F-20.49700928741312
aF57.57451901411781
aa(lp93
F75.71369269441443
aF6.666732314981908
aa(lp94
F-41.90465590551506
aF-36.971492495605055
aa(lp95
F-60.54747340713205
aF2.124826011445973
aa(lp96
F0.637883123803954
aF53.858762564553416
aa(lp97
F63.98610943905054
aF-36.19621584255825
aa(lp98
F80.91253777130869
aF-8.340462815234213
aa(lp99
F49.174897576423504
aF-31.86300258271977
aa(lp100
F-7.745882626881761
aF45.40901055160535
aa(lp101
F-22.503946798370894
aF38.41932242765607
aa(lp102
F-48.251917274460496
aF-6.694237970859287
aa(lp103
F51.118074209551864
aF-9.584796366218436
aa(lp104
F18.56521010119175
aF-37.45361651440936
aa(lp105
F0.25834225275039774
aF-44.84362603739482
aa(lp106
F-33.66035171736243
aF37.51715604260379
aa(lp107
F-37.905999173916875
aF-34.596504677925786
aa(lp108
F-40.28448736350143
aF-4.284654799719813
aa(lp109
F19.370394477049867
aF-66.7176353579065
aa(lp110
F-55.97787493143594
aF-31.53648837027332
aa(lp111
F-59.343550719335866
aF-19.153084712519508
aa(lp112
F-52.327919109815475
aF10.688846764533483
aa(lp113
F-26.88077620167674
aF50.61460958300159
aa(lp114
F70.58147078470388
aF-10.242366118524842
aa(lp115
F-2.25675094901536
aF27.67854901696676
aa(lp116
F-63.77657119721658
aF-11.337614053316994
aa(lp117
F-5.991917553124242
aF24.775175980599876
aa(lp118
F85.21080633773349
aF-16.689446657004233
aa(lp119
F-3.9796648457971493
aF13.067479104133064
aa(lp120
F-34.96128538758135
aF27.52556442866331
aa(lp121
F-38.6636982805437
aF2.1775403054855866
aa(lp122
F61.62531702245046
aF-4.5885703453787565
aa(lp123
F-47.88874868793833
aF-13.397499304331099
aa(lp124
F-34.20812054610092
aF-31.490840682299154
aa(lp125
F-49.01513619735037
aF-28.194812208031475
aa(lp126
F72.76347034956922
aF9.531851968238959
aa(lp127
F44.51128699062257
aF38.12806711774719
aa(lp128
F5.046905130134352
aF-13.151379801160548
aa(lp129
F0.2780161940449933
aF-39.77638281582301
aa(lp130
F-58.63505383311845
aF-10.397091323814973
aa(lp131
F25.150534133316807
aF18.79717411453829
aa(lp132
F-57.387765235367105
aF-25.661905564154
aa(lp133
F-16.23538857217085
aF-3.9705705755148557
aa(lp134
F47.1765961733199
aF32.803324823181406
aa(lp135
F36.34686791133976
aF-49.816350078542
aa(lp136
F-4.588640598818313
aF32.90771003152678
aa(lp137
F2.7653496639613926
aF-17.636739778396432
aa(lp138
F21.38976956636737
aF71.97492626732173
aa(lp139
F-7.186260667290081
aF19.04645343188895
aa(lp140
F12.969938240034967
aF-53.05862317076107
aa(lp141
F52.8174633746883
aF15.148343452919997
aa(lp142
F7.763469190697501
aF54.66005253701489
aa(lp143
F33.4134795455646
aF39.86880487169714
aa(lp144
F-46.480992723648626
aF-33.68744467666835
aa(lp145
F26.006373201870396
aF-39.2028968694675
aa(lp146
F-44.161137836083114
aF20.343526660678503
aa(lp147
F44.401407182566324
aF13.928384327609201
aa(lp148
F20.542937372593347
aF40.31972561159844
aa(lp149
F46.26473152605733
aF-4.382298373745181
aa(lp150
F-15.433011574830669
aF23.755054304136646
aa(lp151
F-19.534934072523704
aF-43.58923655370878
aa(lp152
F-15.929344790552186
aF-54.60432152072155
aa(lp153
F99.97734945267551
aF37.00766790565572
aa(lp154
F-32.12112911401846
aF-61.54047916057612
aa(lp155
F-29.64668779038157
aF-35.337609887355434
aa(lp156
F34.708717484653185
aF26.291596858716442
aa(lp157
F-44.226019562794335
aF66.88811172687069
aa(lp158
F-0.4710461769427494
aF-22.65531831532459
aa(lp159
F11.900076619387
aF-30.142074348711397
aa(lp160
F35.36520058772315
aF15.054740432819253
aa(lp161
F2.717541155875888
aF-49.80397916388868
aa(lp162
F-13.079538146579123
aF50.75010142336737
aa(lp163
F15.808423854787765
aF6.746419947541848
aa(lp164
F13.099401078365323
aF26.840431759410098
aa(lp165
F-7.539956785165837
aF-41.15078015484659
aa(lp166
F64.46356701858029
aF-14.144215910238861
aa(lp167
F-51.85678427953532
aF-39.63143937375055
aa(lp168
F66.21640929050662
aF0.6389577266195079
aa(lp169
F25.09316483649549
aF51.6417639775339
aa(lp170
F-40.85973821822778
aF25.085930253255256
aa(lp171
F-18.29147963691235
aF-38.83431986255716
aa(lp172
F41.764342091449784
aF-2.026761566124675
aa(lp173
F30.7695348894403
aF-11.804467280474654
aa(lp174
F-17.12966806001062
aF-20.282540631222204
aa(lp175
F8.619523752924747
aF-55.24044233712636
aa(lp176
F-11.826523383743414
aF21.33065406061523
aa(lp177
F-11.263936886105919
aF-16.76063218137106
aa(lp178
F-32.84731802920852
aF16.6717077146469
aa(lp179
F-20.476544635567585
aF-27.806003576774227
aa(lp180
F-16.013076257782643
aF43.70143947343316
aa(lp181
F-24.06117529901516
aF70.83237032082269
aa(lp182
F-3.6282976640642826
aF74.42656712249648
aa(lp183
F4.564836925401012
aF-9.267591218895499
aa(lp184
F28.88967678807215
aF-20.405479895233483
aa(lp185
F43.629358850541344
aF-42.35147239542751
aa(lp186
F52.67050799383484
aF-14.920725764114751
aa(lp187
F-12.31193002235971
aF6.851332277821219
aa(lp188
F-45.055619995372396
aF37.630736191698965
aa(lp189
F50.95326569820484
aF-22.446914314067925
aa(lp190
F6.40743987637367
aF-27.26034349723344
aa(lp191
F-6.444826692151924
aF-20.68802422351841
aa(lp192
F-69.01419497831228
aF10.441498449207588
aa(lp193
F10.242734722826997
aF-49.117337307238245
aa(lp194
F-42.0141083406245
aF-21.282236844817735
aa(lp195
F-61.65919679705822
aF13.92309610366882
aa(lp196
F-7.434272302029451
aF41.12370862363891
aa(lp197
F-58.45077598339572
aF25.3270455734064
aa(lp198
F-50.45492091399676
aF45.69186652676773
aa(lp199
F-51.785756748710305
aF-32.581403561794694
aa(lp200
F-30.130337374153292
aF-73.0162804607386
aa(lp201
F44.91572276619405
aF3.885820620469032
aa(lp202
F39.38392790988654
aF55.77428069145701
aa(lp203
F5.9493435024445835
aF-37.786375174396824
aa(lp204
F8.386696007630407
aF26.420455375307967
aa(lp205
F-29.744389654046564
aF5.762818493926655
aa(lp206
F-5.750490782226953
aF-26.625919948363727
aa(lp207
F36.56229398742874
aF33.123746201337134
aa(lp208
F-27.785511470019326
aF-41.31309775476015
aa(lp209
F-7.787604943874832
aF2.462910387321277
aa(lp210
F22.486154181981615
aF33.81136255618482
aa(lp211
F14.052121942701879
aF3.4645304727142463
aa(lp212
F28.87371909580615
aF3.331603454279081
aa(lp213
F17.126361858025124
aF-20.397008748944717
aa(lp214
F17.67593574722272
aF-3.021097680537026
aa(lp215
F-27.301689587828736
aF13.081699400472605
aa(lp216
F10.904490451960987
aF12.754015815473437
aa(lp217
F11.883082804840871
aF-22.735463863201076
aa(lp218
F79.53642932904094
aF24.857552800837787
aa(lp219
F31.73718668057109
aF-24.4057310295549
aa(lp220
F-10.07223415059327
aF35.24092918232486
aa(lp221
F28.814091248113954
aF13.386413993002675
aa(lp222
F14.043744314778731
aF-6.015055481208662
aa(lp223
F-25.38012749064098
aF46.6190783313573
aa(lp224
F-38.19712929585608
aF-29.018836429705814
aa(lp225
F26.495900525510887
aF27.762067041495314
aa(lp226
F-37.010005349668646
aF-15.990721591074783
aa(lp227
F36.676801383566335
aF-39.347378097427274
aa(lp228
F12.115841548291312
aF-39.761234900048954
aa(lp229
F23.941789050001113
aF-2.5284321138675607
aa(lp230
F20.31871462210594
aF-14.656310270691147
aa(lp231
F-34.7854432523275
aF-25.55550124527126
aa(lp232
F-38.358107450703486
aF-45.60285373707891
aa(lp233
F18.326499204173896
aF15.283300963366456
aa(lp234
F-17.987803521992166
aF30.935823904594113
aa(lp235
F-27.224995532507048
aF-15.949384976401436
aa(lp236
F65.65123291294789
aF5.699879284229186
aa(lp237
F33.54719432031282
aF42.20009341229568
aa(lp238
F21.276606936803493
aF-27.126590405609907
aa(lp239
F23.01661990076929
aF7.0373383735963495
aa(lp240
F-18.955073127569253
aF8.879837446222686
aa(lp241
F26.777143368393396
aF-15.567959936671414
aa(lp242
F-31.10106543032783
aF-86.20416689445838
aa(lp243
F-9.801838496271714
aF28.58804362967631
aa(lp244
F20.5528340787494
aF60.53893695410915
aa(lp245
F51.13926949749913
aF7.242666941812357
aa(lp246
F1.1902468716171661
aF-31.872502861740703
aa(lp247
F1.2245264628518302
aF9.41147985815637
aa(lp248
F-20.162728155595794
aF2.4929989473891685
aa(lp249
F-37.19783756154821
aF-20.87419546865726
aa(lp250
F-29.623828279009636
aF32.86865891189361
aa(lp251
F-13.57402328324209
aF13.707606718663207
aa(lp252
F11.337170808118561
aF-1.9780164791516799
aa(lp253
F-34.49246714341029
aF10.21612608263144
aa(lp254
F52.09908894827744
aF-50.01409348741043
aa(lp255
F-23.02082194381923
aF-22.205170894236282
aa(lp256
F-22.50700130406865
aF50.36267366213277
aa(lp257
F-22.715156926005932
aF-9.545856498508806
aa(lp258
F38.27912628093883
aF-6.359133526638133
aa(lp259
F-25.861543498420314
aF19.225025556688134
aa(lp260
F18.86123262888577
aF2.4539872608340323
aa(lp261
F31.497285006048738
aF-4.925500644680259
aa(lp262
F9.320455919854801
aF-10.575730503031032
aa(lp263
F-22.371050163288803
aF-2.9157297373606204
aa(lp264
F58.411129283962154
aF0.5426502593824611
aa(lp265
F-15.410855673087955
aF59.3277590064983
aa(lp266
F-9.062150972752324
aF53.133322307258304
aa(lp267
F-40.601586945638864
aF37.99277817814985
aa(lp268
F11.840801748441462
aF39.665582302643635
aa(lp269
F40.58140247486272
aF20.471357570122997
aa(lp270
F6.940887044484842
aF33.563538650090585
aa(lp271
F85.7228370836667
aF12.478405023025848
aa(lp272
F4.256514383902862
aF3.0858747612548774
aa(lp273
F8.663973565540001
aF-15.827862059279383
aa(lp274
F-42.48926243737088
aF-28.145754291778108
aa(lp275
F30.444375422917723
aF21.721514216840607
aa(lp276
F1.067088713723545
aF-1.9519693633929551
aa(lp277
F25.381106209164262
aF-21.821240890183763
aa(lp278
F18.484782437334605
aF23.180106854552356
aa(lp279
F13.73840664541746
aF20.634867309621285
aa(lp280
F-5.373916471929699
aF-13.935836937019133
aa(lp281
F-10.6075655536288
aF-50.05131582579761
aa(lp282
F26.623751266897575
aF-31.979968883348413
aa(lp283
F46.69142358508591
aF-14.707979633623408
aa(lp284
F-51.54747517574946
aF-23.297376767800976
aa(lp285
F-41.6668696977782
aF-16.321951050915217
aa(lp286
F-5.9280268424514695
aF-4.919480216581237
aa(lp287
F-10.468111867253409
aF-9.377248697792076
aa(lp288
F30.950114882452294
aF-91.83230398662342
aa(lp289
F-24.822320272538626
aF33.353062667206586
aa(lp290
F-12.748907413598317
aF-0.4764669000117449
aa(lp291
F-2.32857066511607
aF-10.118011061050995
aa(lp292
F-30.686578223888077
aF-27.968448910370316
aa(lp293
F-47.94667801611326
aF25.682269738278542
aa(lp294
F-51.73078128936697
aF1.7614869302785205
aa(lp295
F4.812265718554263
aF37.955308756494205
aa(lp296
F-21.935495946326938
aF14.94142435778393
aa(lp297
F-16.173857787122095
aF19.033424011559582
aa(lp298
F49.21790163283894
aF22.42133074910407
aa(lp299
F-32.612078728559695
aF-0.165438510684136
aa(lp300
F-5.033419305809183
aF-34.05475357191662
aa(lp301
F20.22252677615757
aF-9.100190986101094
aa(lp302
F40.505132391278195
aF-18.424719136149285
aasS'error'
p303
F2.0929150581359863
s.