(dp0
S'layout'
p1
(lp2
(lp3
F-42.933050594568876
aF-36.20894679443164
aa(lp4
F-47.602599918316514
aF-46.816455950545794
aa(lp5
F-3.038343249338084
aF56.491261802118146
aa(lp6
F-44.33667545691703
aF3.8834638440459477
aa(lp7
F13.217386806254954
aF-44.57192900335255
aa(lp8
F-4.97847545665449
aF-61.38047427513023
aa(lp9
F-52.316295752062885
aF-5.887920063003212
aa(lp10
F-52.561620673511044
aF-20.225273947238275
aa(lp11
F45.87436651675635
aF-38.880091011996235
aa(lp12
F43.33308348769422
aF4.332652772648945
aa(lp13
F44.9144489251934
aF24.99217444726583
aa(lp14
F-48.85430894822485
aF17.64410077373926
aa(lp15
F22.848996546496615
aF-50.001599410479905
aa(lp16
F-16.549543394829907
aF25.182023064126078
aa(lp17
F30.283418303381918
aF-37.87915351070694
aa(lp18
F-24.79809133155845
aF43.79153561205515
aa(lp19
F33.992708934957655
aF-7.762924580817935
aa(lp20
F-53.129635154742324
aF17.614206528661274
aa(lp21
F-35.10590405281199
aF14.195530552402236
aa(lp22
F25.85702002832298
aF-24.397126663914165
aa(lp23
F5.307664218980069
aF-47.1921715206321
aa(lp24
F-52.33920880050861
aF-32.92466337097149
aa(lp25
F6.660773813207452
aF51.50750388766121
aa(lp26
F36.36337791019291
aF-3.1138494599017337
aa(lp27
F-50.79559238290205
aF32.12534137053822
aa(lp28
F26.29589246399477
aF25.915635893433972
aa(lp29
F42.74985323575011
aF-19.37980905905612
aa(lp30
F-46.3317040331259
aF13.560012426649372
aa(lp31
F52.65938271897349
aF31.677715143427672
aa(lp32
F-14.015274232962511
aF-57.506216465483725
aa(lp33
F11.480303905023488
aF51.800581202629886
aa(lp34
F-12.30066142825448
aF48.894162992675994
aa(lp35
F12.831184986612081
aF30.141981262083206
aa(lp36
F57.83217000163543
aF9.062228054837135
aa(lp37
F-43.29656423970755
aF-29.769083544168787
aa(lp38
F-52.931812694531295
aF-2.559048103253905
aa(lp39
F20.205997958264646
aF-28.004952715116303
aa(lp40
F-42.188358250877194
aF-9.55157716980383
aa(lp41
F45.15391754258435
aF-11.330680929470644
aa(lp42
F-37.14804495445424
aF35.0089815750331
aa(lp43
F-33.38456164976364
aF13.359671574173483
aa(lp44
F35.132605764900944
aF-47.88340360535323
aa(lp45
F-45.759333774156886
aF-37.8652506197576
aa(lp46
F-1.5738264011643428
aF45.908441654390735
aa(lp47
F13.154195070609353
aF37.79376687401493
aa(lp48
F53.43163679460043
aF4.795463448706112
aa(lp49
F-16.42514581054364
aF32.517248821138665
aa(lp50
F55.86819621612333
aF22.431993593052265
aa(lp51
F61.47668656775995
aF15.493543400722837
aa(lp52
F45.772635256775004
aF9.553978549341151
aa(lp53
F24.538194934808914
aF83.40421780359905
aa(lp54
F42.463555356769476
aF8.457938949730705
aa(lp55
F54.02474265343579
aF0.7886020853460693
aa(lp56
F-42.82610155562749
aF39.40675830972151
aa(lp57
F-33.56608622818513
aF36.65017417929335
aa(lp58
F-52.92592723198158
aF21.705449917522248
aa(lp59
F19.614619949622245
aF23.42114121152087
aa(lp60
F-31.047310303060556
aF24.337408948208573
aa(lp61
F12.553902923324882
aF-52.852886942007316
aa(lp62
F54.736703941930216
aF6.524004520133492
aa(lp63
F-47.50136393851958
aF-32.02463243913762
aa(lp64
F14.733007251759595
aF46.060627405231806
aa(lp65
F46.47286868028001
aF18.99683116202748
aa(lp66
F-43.63151668322627
aF14.0824905427122
aa(lp67
F-39.993712115394594
aF-36.90838512650159
aa(lp68
F2.8947365768739224
aF48.2186433298341
aa(lp69
F-21.82650989344075
aF11.332532909085737
aa(lp70
F66.90946522241214
aF0.02954712162198735
aa(lp71
F56.74379352319111
aF-11.402320151318246
aa(lp72
F-28.31889529518878
aF-46.25501746333015
aa(lp73
F12.199604838794324
aF41.79210560053788
aa(lp74
F36.343780309804934
aF-3.0884559311574526
aa(lp75
F-27.6425924288309
aF32.10935608489096
aa(lp76
F-44.37865400929497
aF-9.421457191294127
aa(lp77
F-52.382972708106394
aF4.873799962415668
aa(lp78
F-58.76751777519661
aF11.148483999482771
aa(lp79
F-22.75975444313707
aF-37.29457016067938
aa(lp80
F-38.07518707039125
aF14.408119879059997
aa(lp81
F-29.299601928377342
aF0.9680288956734215
aa(lp82
F8.056354951573077
aF-23.98174431031847
aa(lp83
F19.735585466095387
aF-20.130665136600438
aa(lp84
F-51.23789029424003
aF25.68537647619381
aa(lp85
F-30.677737509415326
aF38.27885026895476
aa(lp86
F-63.48521260015646
aF-15.941137007269354
aa(lp87
F-30.15779060295009
aF20.47223527059044
aa(lp88
F37.86399248887557
aF-8.713066900566277
aa(lp89
F50.069696672608515
aF-3.985022082309083
aa(lp90
F-29.48058647499897
aF10.498797959564145
aa(lp91
F3.2371268820337806
aF-33.39568319765558
aa(lp92
F-10.654341123068043
aF59.27843693693537
aa(lp93
F57.08827226660063
aF5.039992667425657
aa(lp94
F-39.021881077427324
aF-34.487848359528236
aa(lp95
F-56.86087866930048
aF4.508889868936762
aa(lp96
F7.609396614204238
aF40.19950794372732
aa(lp97
F47.98961533201494
aF-20.241813322843168
aa(lp98
F64.53129382030384
aF2.021911773858064
aa(lp99
F47.495832606993545
aF-31.402605140535204
aa(lp100
F-18.880010665166
aF38.7660975068696
aa(lp101
F-29.028180491524267
aF22.431368309579103
aa(lp102
F-45.84478704388051
aF-7.535143002208854
aa(lp103
F45.399392316758664
aF-7.3733412982670234
aa(lp104
F18.222932425761748
aF-53.301441054251974
aa(lp105
F7.3104889738116965
aF-42.532784126070545
aa(lp106
F-46.58930340951039
aF26.860963319272415
aa(lp107
F-37.99563453077711
aF-39.559107809748255
aa(lp108
F-53.58123484857352
aF24.724381119489077
aa(lp109
F29.02656368896401
aF-55.53574192341126
aa(lp110
F-44.52170819454994
aF-31.86321200305179
aa(lp111
F-37.58949703108897
aF-27.44429299684523
aa(lp112
F-37.286495562541354
aF24.654752358016026
aa(lp113
F-45.41861380268428
aF18.774508097254678
aa(lp114
F55.75009689853567
aF8.132175412003978
aa(lp115
F-22.54500900666648
aF18.997795674192243
aa(lp116
F-54.13271471309416
aF-11.767496587789575
aa(lp117
F-24.294694723756606
aF17.67279761364159
aa(lp118
F48.368935859732446
aF-5.728354451331145
aa(lp119
F-51.401329818027065
aF13.726255826347415
aa(lp120
F-40.48969097121919
aF22.353915984411966
aa(lp121
F-32.35312339929759
aF8.592883786018028
aa(lp122
F40.05912442778127
aF-10.331498404543662
aa(lp123
F-43.18723253835423
aF-26.9873649898639
aa(lp124
F-37.632780411665244
aF-36.514008433350114
aa(lp125
F-50.40762204294658
aF-22.68867872201746
aa(lp126
F59.829551491417675
aF4.775063873848554
aa(lp127
F32.68513629984678
aF47.83839662097223
aa(lp128
F-1.197754159703754
aF-10.826025977874764
aa(lp129
F5.926143177443983
aF-31.807777176237717
aa(lp130
F-61.79238156373409
aF2.4674056544773095
aa(lp131
F33.37915644819962
aF20.252216999040467
aa(lp132
F-51.77546550699437
aF-15.394577353783285
aa(lp133
F32.37958582984266
aF4.442965467234932
aa(lp134
F41.93946418693188
aF42.149598710376374
aa(lp135
F40.07412213164594
aF-38.11060048791071
aa(lp136
F-17.729382057866435
aF30.99135094230651
aa(lp137
F13.864605214311318
aF-26.193976615727863
aa(lp138
F8.52078319054002
aF65.28319085245825
aa(lp139
F-34.3621561114415
aF24.64980507304768
aa(lp140
F17.09937934179919
aF-33.31864135625765
aa(lp141
F41.95794840141294
aF-5.2208266115452675
aa(lp142
F23.08515248770244
aF35.63473736819397
aa(lp143
F24.617392824492722
aF-8.484520524293805
aa(lp144
F-43.75716459007156
aF9.20796389122771
aa(lp145
F10.547000243912441
aF-32.392515616278956
aa(lp146
F-48.86722277222776
aF14.84723276770791
aa(lp147
F42.71256381630209
aF20.754515191702573
aa(lp148
F37.70867909683283
aF25.27419435372758
aa(lp149
F36.464252140181415
aF-7.415539933497358
aa(lp150
F-30.42675298625933
aF18.466521383335994
aa(lp151
F-40.39787036580414
aF-16.086481857915633
aa(lp152
F-26.081918892117752
aF-7.790904124981942
aa(lp153
F68.98432657234797
aF18.278094775557484
aa(lp154
F-18.552360890091105
aF-51.243876459493755
aa(lp155
F-47.346595192399114
aF-20.708608364735706
aa(lp156
F35.69876993972609
aF15.69430702156248
aa(lp157
F-44.17303348854292
aF33.64329038572547
aa(lp158
F-27.228566298724775
aF9.652520517513373
aa(lp159
F-36.789469696953255
aF-34.117961502753595
aa(lp160
F26.707432258384912
aF42.75685601297636
aa(lp161
F4.212966883680306
aF-38.177793667582584
aa(lp162
F-9.413785993661847
aF43.90850284059816
aa(lp163
F21.037898692599267
aF-10.112849909846254
aa(lp164
F20.639270407340874
aF10.866110471711949
aa(lp165
F-2.789521059073146
aF-48.067058431201026
aa(lp166
F51.35989390023198
aF-8.322834714715631
aa(lp167
F-41.786116749163405
aF-38.81280734099786
aa(lp168
F64.32283232650948
aF10.822725837025539
aa(lp169
F8.354152545461503
aF46.576762183944645
aa(lp170
F-35.89595165639231
aF20.626754862458714
aa(lp171
F-40.2802869048807
aF-8.232238739228098
aa(lp172
F38.19521232246617
aF-11.117585150841899
aa(lp173
F34.44394836619163
aF-20.196198269220325
aa(lp174
F-47.35715736080887
aF5.8597670191235816
aa(lp175
F16.340728257740277
aF-37.17205157387044
aa(lp176
F-33.1852166218252
aF18.245954916762727
aa(lp177
F-3.2366524967685044
aF-40.866685381636735
aa(lp178
F-32.60657343864552
aF21.251770260335643
aa(lp179
F-31.4911609264587
aF16.213091476039335
aa(lp180
F-31.202535704496455
aF33.50710487497316
aa(lp181
F-18.349957647873136
aF62.9018002188329
aa(lp182
F19.39690873152944
aF46.873074540570386
aa(lp183
F1.101878047133673
aF-11.73146256353704
aa(lp184
F22.86338495834501
aF-38.02250493793969
aa(lp185
F16.23727009962027
aF-51.588464308111135
aa(lp186
F35.39991030507093
aF-10.809938940486365
aa(lp187
F-46.001525816194935
aF-21.720503009182742
aa(lp188
F-54.80878088248361
aF21.926143036047264
aa(lp189
F36.85703393434126
aF-26.824186439051008
aa(lp190
F-3.496295386053618
aF-28.12019487388274
aa(lp191
F-3.2103868571515544
aF-22.75675443752527
aa(lp192
F-53.068982233428386
aF7.637302235754418
aa(lp193
F19.063111937073533
aF-30.089147854813262
aa(lp194
F-44.178775745807876
aF-12.273301676766568
aa(lp195
F-64.32352956646652
aF-12.499801310325008
aa(lp196
F-6.35870261388382
aF32.40129031819592
aa(lp197
F-20.784690205348443
aF25.535548615161915
aa(lp198
F-51.31953820322417
aF33.88612354207363
aa(lp199
F-49.41069874560436
aF-9.463487288040819
aa(lp200
F-11.329630239651845
aF-47.540560466424544
aa(lp201
F26.957240965956615
aF-11.186858182500718
aa(lp202
F23.926808830921594
aF50.608426552790064
aa(lp203
F9.033320038335361
aF-28.37156687115992
aa(lp204
F24.472729617671803
aF16.588890862068432
aa(lp205
F-23.29006131975598
aF20.75387603915363
aa(lp206
F29.622847074877157
aF-33.20352284560957
aa(lp207
F52.58046621647057
aF22.101293087125025
aa(lp208
F-28.804044066026016
aF-6.385278041213637
aa(lp209
F-34.93681807298065
aF-35.88427619605288
aa(lp210
F19.25383042838396
aF42.20057575563299
aa(lp211
F19.012624034805782
aF-12.421873952555208
aa(lp212
F2.6248499810822556
aF4.447680352499773
aa(lp213
F17.56068152235104
aF-45.4350874609601
aa(lp214
F28.547131849045705
aF-16.128175426023358
aa(lp215
F-22.058199898819037
aF15.23239364214754
aa(lp216
F40.12102221569325
aF-5.918052157420965
aa(lp217
F35.145851328702705
aF-41.555935735984555
aa(lp218
F60.11070354842917
aF29.716032511605295
aa(lp219
F39.82980497116537
aF-33.58368831273071
aa(lp220
F22.354267907172588
aF13.08091991473737
aa(lp221
F37.01100297998982
aF27.487044356372238
aa(lp222
F27.212878438287273
aF-13.725685880199375
aa(lp223
F-46.41098995743998
aF16.612365375263437
aa(lp224
F-41.19327537870651
aF-34.78026126392254
aa(lp225
F42.13374601542226
aF33.07127406445218
aa(lp226
F-41.46211833693452
aF-13.284203650996703
aa(lp227
F64.97299817672453
aF-1.609487580179593
aa(lp228
F23.46667278794911
aF-30.237675160708275
aa(lp229
F35.81322671973267
aF-17.08101230544494
aa(lp230
F41.58770426109249
aF-1.1674542838699393
aa(lp231
F-41.10708029911796
aF-30.716662184760057
aa(lp232
F-34.41038143327004
aF-49.80815793569047
aa(lp233
F17.97504380032422
aF36.697140763527436
aa(lp234
F-0.39031759122089676
aF43.939328752563846
aa(lp235
F-21.738571725827505
aF-43.99248163769634
aa(lp236
F62.56592397197834
aF7.111011537881123
aa(lp237
F18.75936573132516
aF5.666243812717258
aa(lp238
F48.75005710780575
aF2.309220057217769
aa(lp239
F-0.373714513233633
aF2.1905630457410274
aa(lp240
F-27.540832228175397
aF-23.07679454031696
aa(lp241
F24.52815136750194
aF-32.587246338709434
aa(lp242
F-23.444462538139135
aF-57.81082440846613
aa(lp243
F-20.655127693338212
aF38.89006556616425
aa(lp244
F-2.8174738527450023
aF51.74354905134613
aa(lp245
F38.16712932949588
aF22.851387559398887
aa(lp246
F-15.5109377109117
aF-34.243907823416954
aa(lp247
F-20.517878026073213
aF33.83976139051882
aa(lp248
F-47.58792468758033
aF-14.978160285826325
aa(lp249
F-44.00552867417137
aF-16.86766631721294
aa(lp250
F-41.468569546601785
aF30.618492725582005
aa(lp251
F-24.68646495896302
aF24.38251447454268
aa(lp252
F31.791987098931237
aF-28.624857833706013
aa(lp253
F-17.389335901765147
aF27.260291100305544
aa(lp254
F29.95224221945702
aF-13.264958885439968
aa(lp255
F-11.68234697605793
aF-38.91368333891567
aa(lp256
F-28.121088707590914
aF27.74188175636186
aa(lp257
F6.7514558047832764
aF-8.089010573238035
aa(lp258
F41.682502702290236
aF-17.476968106638715
aa(lp259
F-21.83843421056615
aF29.478103361257123
aa(lp260
F11.99684520994104
aF-23.639815740850068
aa(lp261
F41.74651586458438
aF-29.275885436024044
aa(lp262
F10.7273312836769
aF-27.465129336854673
aa(lp263
F25.57721720670163
aF-15.960419578945732
aa(lp264
F65.021282029874
aF4.0701932059843395
aa(lp265
F-8.857436115558123
aF37.599231830664756
aa(lp266
F-7.9902914741782896
aF42.02533844555057
aa(lp267
F-48.33630063392171
aF20.62882238659984
aa(lp268
F25.93694246944559
aF35.80597878006061
aa(lp269
F33.64479982652859
aF9.626390307794756
aa(lp270
F8.104758924555222
aF15.214222347364446
aa(lp271
F61.75398855096609
aF20.686157724703904
aa(lp272
F56.23834547728521
aF16.484973021242222
aa(lp273
F24.7142154839939
aF-3.408646231628544
aa(lp274
F-42.451632540484354
aF-32.94425663884147
aa(lp275
F25.551852715320134
aF44.27702728091897
aa(lp276
F38.834329820078445
aF5.430517940957896
aa(lp277
F19.79189780476076
aF-34.769026422182776
aa(lp278
F31.18528572093978
aF32.07539082545034
aa(lp279
F28.18193430966342
aF20.66722344517907
aa(lp280
F5.770771126561921
aF-10.945445547086289
aa(lp281
F-6.277812769470675
aF-51.69043592983786
aa(lp282
F28.363585726442185
aF-48.45303643813762
aa(lp283
F29.494117233167284
aF-4.229622272212853
aa(lp284
F-44.81180941651547
aF-34.532580270267786
aa(lp285
F-39.99120854640084
aF-5.435046776775316
aa(lp286
F12.376453974972437
aF-34.353173520298526
aa(lp287
F12.112504606738845
aF-31.66346350849995
aa(lp288
F19.777537389282752
aF-60.663861473543896
aa(lp289
F-31.521411303554373
aF27.66111296604572
aa(lp290
F27.610346556525034
aF25.155637287899005
aa(lp291
F3.4340903512049277
aF-7.343370341416401
aa(lp292
F-40.12336973211164
aF-32.5970519029203
aa(lp293
F-45.49848561706241
aF11.178154967356793
aa(lp294
F-46.458426219011514
aF8.531049458480886
aa(lp295
F16.96426255637352
aF26.835938721171477
aa(lp296
F-24.422176764527954
aF30.408985681052105
aa(lp297
F-26.182765640354244
aF21.264974594289004
aa(lp298
F44.848107440407276
aF13.260812796943139
aa(lp299
F-46.12600618320663
aF-4.829667852940055
aa(lp300
F1.6938198875654915
aF-42.560930765621755
aa(lp301
F3.8366809188498494
aF1.7575553471982281
aa(lp302
F61.40605137729379
aF-0.4284326193615592
aa(lp303
F24.056855277297288
aF21.428781819512693
aa(lp304
F-37.66452621147221
aF-9.301235544732892
aa(lp305
F22.838484514854255
aF-21.897441501362362
aa(lp306
F-30.01341867168298
aF14.279615490383938
aa(lp307
F52.893289493692485
aF13.172281382168137
aa(lp308
F-4.117909977688649
aF7.2552887541135815
aa(lp309
F30.107452112710448
aF-29.78508933437006
aa(lp310
F53.719216818088526
aF8.989466021574222
aa(lp311
F31.246645892314298
aF-21.593872882787068
aa(lp312
F4.527520814300753
aF-15.573669481101286
aa(lp313
F0.03006059802853314
aF-2.3413112354405694
aa(lp314
F50.08976135517939
aF7.865009626752711
aa(lp315
F-32.87114430041467
aF42.230730280299305
aa(lp316
F-27.83538376632884
aF-33.30077777356247
aa(lp317
F1.2975942718566653
aF34.91102462109864
aa(lp318
F42.993461893864456
aF15.09863958446501
aa(lp319
F-38.7471105851016
aF-30.0573988984594
aa(lp320
F57.3366487482886
aF13.604542316241751
aa(lp321
F36.90050604441811
aF-28.93292324457062
aa(lp322
F-6.094862626725637
aF-6.652776571250882
aa(lp323
F45.59955316704803
aF3.548121932088477
aa(lp324
F31.086298427335215
aF-7.130652999162531
aa(lp325
F20.096912052996352
aF25.462206651004216
aa(lp326
F10.343910929507539
aF-42.221678441127416
aa(lp327
F22.387417139629832
aF-5.771497721965044
aa(lp328
F10.886921309107526
aF-3.153172366476372
aa(lp329
F-55.48476014146504
aF12.209600963183846
aa(lp330
F-35.29132204316305
aF-6.220032421101348
aa(lp331
F15.481886084858392
aF-17.670066850614617
aa(lp332
F20.957487027568128
aF17.38016512208635
aa(lp333
F-37.688789328043555
aF9.003984593172834
aa(lp334
F20.750657569109258
aF-16.259150446152237
aa(lp335
F-0.16765893684718874
aF-36.72520658772876
aa(lp336
F4.1432251435115095
aF-20.911903078624768
aa(lp337
F-10.077647283345025
aF26.89181537102421
aa(lp338
F31.803357510507432
aF18.919193639040188
aa(lp339
F3.645901078722055
aF31.777419545462134
aa(lp340
F-4.9277087943558895
aF43.50272994727754
aa(lp341
F-59.62020705424863
aF-3.1030446370744036
aa(lp342
F3.9919939769679775
aF43.03615155804761
aa(lp343
F-49.62872259513018
aF11.256967165577782
aa(lp344
F48.494448598717476
aF-25.79997348224489
aa(lp345
F-33.2793571607405
aF9.537758595973951
aa(lp346
F-7.218103781923787
aF-29.246941056948074
aa(lp347
F-25.314241165669863
aF15.07513501470547
aa(lp348
F-0.5203797450161733
aF9.57691511282939
aa(lp349
F-27.936533611578252
aF24.183528089867643
aa(lp350
F34.73557491592887
aF-32.46296901543233
aa(lp351
F23.95940163357087
aF30.240301211396922
aa(lp352
F49.851381418625195
aF-13.118265449961653
aa(lp353
F13.839371375621687
aF-14.670479942703848
aa(lp354
F20.226803116947874
aF-23.789290488999153
aa(lp355
F-38.80518493710948
aF18.281506643735923
aa(lp356
F9.064493829175644
aF-16.332841763544533
aa(lp357
F46.7729101420816
aF0.13347524434441482
aa(lp358
F-45.94342305766993
aF0.16738586899069208
aa(lp359
F41.94645118352883
aF1.6680566843627196
aa(lp360
F-37.96674144257626
aF-32.17584100332217
aa(lp361
F33.70548945313227
aF1.3614651572701562
aa(lp362
F-14.678896699631165
aF-43.726142092494264
aa(lp363
F-15.499065526882582
aF21.503145118217045
aa(lp364
F-21.805755486926213
aF40.2395119213104
aa(lp365
F24.756798532435628
aF-11.727006119303795
aa(lp366
F27.651439456855414
aF8.672269388841661
aa(lp367
F-11.99029588667052
aF21.66460822074872
aa(lp368
F28.023543455942075
aF-4.933896765751786
aa(lp369
F-12.271833193672393
aF36.28133249765989
aa(lp370
F49.420872110306156
aF14.163211708956842
aa(lp371
F61.84195852985874
aF9.006278494489054
aa(lp372
F-16.10045240044146
aF36.75999022621879
aa(lp373
F8.551054353651985
aF-35.80296575906426
aa(lp374
F49.25440826611166
aF-2.6733647872976625
aa(lp375
F-46.63738530449204
aF-11.14636398627176
aa(lp376
F-41.66662884448996
aF11.429871979007608
aa(lp377
F2.6454316669202846
aF7.071422245974105
aa(lp378
F18.74421241741998
aF21.065280817387542
aa(lp379
F41.06607399229521
aF9.827708270573547
aa(lp380
F5.405545965928371
aF-27.407752207987766
aa(lp381
F1.7664537218595753
aF-29.24078866390387
aa(lp382
F-38.42855166140525
aF28.683142466724448
aa(lp383
F14.500338311730223
aF33.68869656507266
aa(lp384
F-3.502908499193274
aF3.3924367382688723
aa(lp385
F7.873220686758
aF-26.040465745939102
aa(lp386
F55.86684863412684
aF-6.1307686400244075
aa(lp387
F-7.562587463027573
aF-42.41843463778444
aa(lp388
F6.195515839495041
aF36.48867599107467
aa(lp389
F-3.204744560746171
aF19.868753216373033
aa(lp390
F-14.65289705690546
aF40.301410020254046
aa(lp391
F8.787316712659017
aF19.311745200429005
aa(lp392
F-10.925972277981684
aF33.167937635889686
aa(lp393
F-11.702479762610801
aF7.105856900861164
aa(lp394
F-42.853594035102226
aF-6.788551140513609
aa(lp395
F8.4839471059195
aF24.008610696700025
aa(lp396
F-48.54191070419555
aF-3.088642300908636
aa(lp397
F-36.99565322711693
aF6.526403917293535
aa(lp398
F15.550706408882725
aF-23.306914324469762
aa(lp399
F-51.44082666778015
aF7.167885146855562
aa(lp400
F31.751948825155754
aF26.834831502884814
aa(lp401
F7.270348430807297
aF-18.973633127032404
aa(lp402
F-8.069892988302858
aF-14.03353885846625
aa(lp403
F23.243737534001003
aF-0.6939410198786564
aa(lp404
F-20.23074347675887
aF-10.211646793558677
aa(lp405
F-41.45606960743882
aF5.847780873787571
aa(lp406
F-10.58145200758579
aF-29.997335227173366
aa(lp407
F-19.870837208063314
aF-31.81390628790865
aa(lp408
F10.170825235958588
aF-20.383012701864573
aa(lp409
F22.72929615792605
aF-14.024703427276686
aa(lp410
F-24.193071722270428
aF-6.137805384646531
aa(lp411
F-20.349638484473324
aF10.443722258197115
aa(lp412
F55.97676620918842
aF10.970349736962744
aa(lp413
F-40.24463957380533
aF-11.683475130312214
aa(lp414
F15.049867579636242
aF0.6428731325904498
aa(lp415
F-9.762939151171638
aF24.26993716334422
aa(lp416
F18.74202170395812
aF-41.572527533890316
aa(lp417
F10.910350062928822
aF10.69656335314164
aa(lp418
F13.885441536644038
aF-5.642804354945695
aa(lp419
F-43.72862810356746
aF6.768168535174233
aa(lp420
F-38.3133039243527
aF-13.046046987985031
aa(lp421
F60.42230331783459
aF2.161456520433119
aa(lp422
F-42.59899759154914
aF25.065418634715705
aa(lp423
F-14.392107197414079
aF27.839389519333693
aa(lp424
F-41.2283178166011
aF8.33077157018205
aa(lp425
F-24.831361731134507
aF-22.081415792767395
aa(lp426
F-2.783507465309239
aF34.86457905734488
aa(lp427
F1.2869476741911487
aF10.298660649917105
aa(lp428
F-14.918959189481427
aF-13.873698707033466
aa(lp429
F6.7407623191105115
aF29.374535683719277
aa(lp430
F15.583792393684693
aF-29.01626303118998
aa(lp431
F32.71265486668559
aF-5.756504242582685
aa(lp432
F-4.0243271663027675
aF38.45511461755117
aa(lp433
F27.92405833405795
aF-31.505753466356694
aa(lp434
F-10.17225783162411
aF-3.4915864720990406
aa(lp435
F-45.8202414094521
aF22.50698047045514
aa(lp436
F-4.44856060908202
aF-32.669245683565315
aa(lp437
F-20.436922584753372
aF5.260547115800926
aa(lp438
F2.1638001584614965
aF-17.962467992683187
aa(lp439
F-13.011732419819756
aF33.00904292561925
aa(lp440
F43.514191067323196
aF6.411775157096395
aa(lp441
F-4.15517040043571
aF11.24380679976807
aa(lp442
F-30.20071695442315
aF-21.689766170502473
aa(lp443
F-29.503198543893205
aF-10.678448843004745
aa(lp444
F-26.058626098021637
aF3.049727363973442
aa(lp445
F4.610968623165553
aF10.234190582120315
aa(lp446
F-1.4342484861656373
aF13.7369686418322
aa(lp447
F30.138596219802224
aF6.038199880346015
aa(lp448
F-25.61397125190293
aF-2.681207498981902
aa(lp449
F-6.322383883082908
aF-22.925797966421275
aa(lp450
F9.497079591791117
aF-21.720918683692467
aa(lp451
F20.80075346762142
aF-12.165993416400582
aa(lp452
F-42.419038131918384
aF2.6209416713645997
aa(lp453
F-35.21257184634008
aF-32.40619365153103
aa(lp454
F2.3129821550584593
aF15.122987867207499
aa(lp455
F27.404028144252106
aF16.055019736557743
aa(lp456
F38.09758269215044
aF-22.556276524222557
aa(lp457
F-18.54507169883938
aF-22.34683596421904
aa(lp458
F-25.437947025081204
aF11.679502700264026
aa(lp459
F15.643099218628862
aF14.750213530706953
aa(lp460
F19.48735594289414
aF14.761080795483991
aa(lp461
F37.20309801491188
aF5.833684845697736
aa(lp462
F-27.1700550595769
aF16.748705973749843
aa(lp463
F28.43943919329911
aF-0.12129327126426942
aa(lp464
F32.268642248040194
aF-10.42426567532609
aa(lp465
F5.324018351047032
aF13.293195517630245
aa(lp466
F30.66581031412102
aF0.7150048853987409
aa(lp467
F45.14531763273035
aF0.2353198527214712
aa(lp468
F21.29270898455434
aF6.299094885033299
aa(lp469
F9.967898648024798
aF-24.867732780145435
aa(lp470
F7.142360740115609
aF4.288821816086823
aa(lp471
F-26.60794294714712
aF18.954978795465713
aa(lp472
F-23.375285580040348
aF1.5712301136311135
aa(lp473
F-40.127640280323064
aF-27.804605619781082
aa(lp474
F9.314185669022319
aF32.93077363708581
aa(lp475
F38.30389190035085
aF8.52070435971616
aa(lp476
F34.8841675104331
aF-38.0687205468793
aa(lp477
F25.377692401777452
aF4.967876747306828
aa(lp478
F7.2522968783595845
aF12.326931481648979
aa(lp479
F-8.354546880738678
aF7.176718781028209
aa(lp480
F-11.948237498236045
aF29.873213682546716
aa(lp481
F-20.056835271894418
aF2.870902164557289
aa(lp482
F15.029930275209294
aF5.143512552334783
aa(lp483
F-35.22675372463645
aF16.930600999935113
aa(lp484
F-34.487519179756056
aF5.218622433059403
aa(lp485
F1.982683034387873
aF19.569470741501178
aa(lp486
F-6.939286086496773
aF-25.73835828515707
aa(lp487
F9.13398734124775
aF-13.410820426794512
aa(lp488
F-18.121199076334836
aF15.34773075502994
aa(lp489
F-33.52555927001308
aF1.3547648946889503
aa(lp490
F-8.670500925352178
aF-35.57507968119444
aa(lp491
F-1.3300343397560799
aF17.00547224334524
aa(lp492
F17.644338509254233
aF9.232213795027493
aa(lp493
F-8.319802309632596
aF34.47944646942359
aa(lp494
F45.569330171253135
aF5.6818760702834785
aa(lp495
F23.50230623337581
aF8.675535913766463
aa(lp496
F25.10783035565422
aF-44.30477171274534
aa(lp497
F-36.04231765542404
aF-30.048651340868467
aa(lp498
F-28.875882660328156
aF-36.858576526464184
aa(lp499
F1.2678760174403134
aF30.520274673337987
aa(lp500
F-43.95603048852826
aF16.406324799165
aa(lp501
F-28.38265514685154
aF20.269661191615576
aa(lp502
F51.42340187694753
aF6.369504152750625
aa(lp503
F-0.5512186165703447
aF-7.290190253435509
aa(lp504
F13.060235837318258
aF-8.49258767187058
aa(lp505
F51.54282686037355
aF9.80645177494006
aa(lp506
F0.4504407685502951
aF-14.914639548475227
aa(lp507
F-19.273534982003703
aF-1.477605609676535
aa(lp508
F-1.9814178298383882
aF30.15987013764047
aa(lp509
F0.49468524809062103
aF25.788837254937487
aa(lp510
F-23.762975627809016
aF-18.923662924836254
aa(lp511
F-13.361347456981349
aF-17.010475555342754
aa(lp512
F-1.2668209477503034
aF22.80569446731948
aa(lp513
F-35.23037490289163
aF28.813281776187196
aa(lp514
F11.348505325367732
aF14.744474539220075
aa(lp515
F-2.554957986824078
aF-4.925841762897915
aa(lp516
F13.872627984898452
aF22.830886326464118
aa(lp517
F-10.666514422102441
aF-19.134814954612818
aa(lp518
F-11.848068756733266
aF10.467906818141804
aa(lp519
F-13.566786208596513
aF24.230083035084288
aa(lp520
F-13.71649096820628
aF18.006875645290453
aa(lp521
F-35.970170190540664
aF2.0917607942728402
aa(lp522
F7.319532504087596
aF8.498530100255444
aa(lp523
F40.679671090002486
aF0.13735811318210656
aa(lp524
F-16.12381801190356
aF-28.278633149972176
aa(lp525
F-28.378072623048478
aF-14.315978120321338
aa(lp526
F27.843741034231442
aF-21.03507408646802
aa(lp527
F-5.393189014965804
aF-19.493833413879557
aa(lp528
F-7.712651580563726
aF2.2518850267151764
aa(lp529
F29.47401868471833
aF2.591527620751841
aa(lp530
F30.718456037479726
aF-24.82855792745565
aa(lp531
F12.752467623768439
aF-18.141401086254465
aa(lp532
F-4.115188109988949
aF-0.5829222317339549
aa(lp533
F6.106852736328263
aF17.772082775961614
aa(lp534
F-17.277476348464482
aF20.213473328810846
aa(lp535
F-12.95434715842332
aF1.4654857494124223
aa(lp536
F-0.14706097283445385
aF-21.84888520341027
aa(lp537
F-12.589598348812832
aF-22.99664359427998
aa(lp538
F-38.925377205392536
aF1.485419125205888
aa(lp539
F12.131419859100749
aF18.824806818036304
aa(lp540
F25.45516282815617
aF1.3241853126279954
aa(lp541
F-14.605344168620064
aF-10.668265534031843
aa(lp542
F-7.887379305265482
aF29.164750845477563
aa(lp543
F15.614544961545711
aF-12.605712039960826
aa(lp544
F17.562077088666527
aF-4.512711760624711
aa(lp545
F-26.437293270210834
aF-5.516127301321835
aa(lp546
F-28.363427268835675
aF13.940358797800705
aa(lp547
F-15.272721243199783
aF12.74199123014007
aa(lp548
F38.5760207145473
aF1.8999922717047515
aa(lp549
F-39.112256858483676
aF5.139853390545888
aa(lp550
F-5.134327188193271
aF17.291748252848475
aa(lp551
F32.22383454112641
aF13.2136904015373
aa(lp552
F33.03583754015333
aF-2.8528758242042818
aa(lp553
F-17.33389504055968
aF-32.966039581433364
aa(lp554
F-16.55489455052875
aF-4.577897699128099
aa(lp555
F14.408291032352
aF8.654383821736246
aa(lp556
F-14.25169075674086
aF-22.91101903579721
aa(lp557
F-10.398089043177455
aF2.827382692669595
aa(lp558
F6.502329273872701
aF-0.9550715804810811
aa(lp559
F-6.38920879136742
aF23.297340543546838
aa(lp560
F10.74940996908435
aF-7.965921823457121
aa(lp561
F14.720679405732911
aF-2.437956090322024
aa(lp562
F20.700637673849645
aF-1.337148469168067
aa(lp563
F-0.9005460157083187
aF5.300225170900589
aa(lp564
F6.029194733321464
aF-5.922077521579433
aa(lp565
F27.174691516880316
aF12.330774875930945
aa(lp566
F-20.118262325654708
aF22.15731316548979
aa(lp567
F-22.280869537968094
aF-13.52358701949439
aa(lp568
F18.061144123712012
aF0.5647354605056379
aa(lp569
F-11.262743578848516
aF14.613122763981059
aa(lp570
F-7.727538835239636
aF14.671772629470986
aa(lp571
F11.036984512520384
aF6.259804472708434
aa(lp572
F-28.636054440141297
aF18.106966126918433
aa(lp573
F-14.377378642905745
aF-7.116293799113154
aa(lp574
F-36.72967625215176
aF-17.48780226645394
aa(lp575
F9.197486138041196
aF-3.9681824438562665
aa(lp576
F0.7210136981184376
aF-25.53400638165776
aa(lp577
F16.738750108627993
aF19.406189382086513
aa(lp578
F16.805117718226523
aF-8.2151098273466
aa(lp579
F11.761667169709531
aF26.082928167191934
aa(lp580
F12.416672596518891
aF3.191453814610501
aa(lp581
F-10.031796617739866
aF30.422846929003654
aa(lp582
F41.49861153372753
aF5.384673927076903
aa(lp583
F-16.359031066332463
aF4.529261487285193
aa(lp584
F25.796358045073834
aF-20.005892195912313
aa(lp585
F12.065728929536906
aF-11.973967736883104
aa(lp586
F10.07534790621595
aF0.5978262016466431
aa(lp587
F-15.240373752285082
aF-1.5742050785073969
aa(lp588
F13.840336892310477
aF-20.717436743431836
aa(lp589
F-13.409354089877361
aF-25.12824350218317
aa(lp590
F-9.972632276042674
aF18.64077138383071
aa(lp591
F-7.41807513864484
aF-1.2258353612240107
aa(lp592
F19.90098348881657
aF-7.423851713101352
aa(lp593
F-10.230540696023487
aF-9.94314576220984
aa(lp594
F-5.695154533305182
aF-10.41890148809649
aa(lp595
F-8.273385684016834
aF10.542080631400136
aa(lp596
F3.651089245949394
aF-3.0708273884983597
aa(lp597
F-27.860166617707286
aF5.9418924313770916
aa(lp598
F-2.9396130734313326
aF25.941689493134813
aa(lp599
F-27.422691613025968
aF-19.6380184905083
aa(lp600
F-3.48916485558362
aF-16.107909999396224
aa(lp601
F3.978911648169888
aF23.688314816350807
aa(lp602
F8.893325006877452
aF-9.84821825478826
aasS'error'
p603
F2.357255458831787
s.