(dp0
S'layout'
p1
(lp2
(lp3
F-53.87846097513948
aF-33.85247781145436
aa(lp4
F-49.18063796878284
aF-52.21937977042351
aa(lp5
F-3.1712905021660616
aF52.42642403077207
aa(lp6
F-50.11380886720318
aF-2.712450747676812
aa(lp7
F15.345581332300616
aF-47.530281073376976
aa(lp8
F-9.942413947443425
aF-67.32416298572345
aa(lp9
F-55.2593713047414
aF8.57301583634891
aa(lp10
F-76.15522458961053
aF-28.07142918315038
aa(lp11
F46.83985010479375
aF-40.38793692276527
aa(lp12
F48.582717534863136
aF-1.1601297212006547
aa(lp13
F58.66363906855465
aF25.70391841618299
aa(lp14
F-58.713981681187924
aF30.939675489784733
aa(lp15
F24.3055003764876
aF-57.01134117882931
aa(lp16
F-24.76637898108564
aF7.655450122427883
aa(lp17
F26.138662120228872
aF-40.79465945251509
aa(lp18
F-22.532415997552917
aF53.98283845329619
aa(lp19
F43.72866555954517
aF0.9527931929428949
aa(lp20
F-51.483661912235966
aF19.84247696527374
aa(lp21
F-36.98671320571909
aF4.484114893751835
aa(lp22
F30.58665921392949
aF-36.948108687692226
aa(lp23
F14.138429160941952
aF-44.455953268987145
aa(lp24
F-59.574380079141434
aF-33.51676281933774
aa(lp25
F30.346534343513994
aF73.0147688055151
aa(lp26
F38.376481939101886
aF3.4460753059663682
aa(lp27
F-60.25907886205288
aF35.57831242777253
aa(lp28
F3.7050253956042734
aF40.9993249832011
aa(lp29
F44.50006380674927
aF-15.885578286308935
aa(lp30
F-40.80057613636591
aF5.820093227972835
aa(lp31
F55.89976734108353
aF34.515994841481465
aa(lp32
F-4.611715142658807
aF-61.94512755185929
aa(lp33
F31.859724337485133
aF69.77273604588034
aa(lp34
F-2.970416514892015
aF45.753501248771826
aa(lp35
F20.488352551570433
aF34.56355780786819
aa(lp36
F68.93749279888323
aF0.05604405846062367
aa(lp37
F-62.11506554546599
aF-12.862265442584734
aa(lp38
F-47.71977027279832
aF6.400541870081301
aa(lp39
F8.457288631509991
aF-46.96531244858681
aa(lp40
F-43.143510611626695
aF-18.815385594742686
aa(lp41
F45.68412253862971
aF-3.4280947128550663
aa(lp42
F-17.157737910414767
aF53.10006974027247
aa(lp43
F-29.274974342581135
aF-8.72911672466693
aa(lp44
F41.98398117457729
aF-49.84901984520911
aa(lp45
F-56.103314392207224
aF-37.29058339111195
aa(lp46
F3.1712928418048816
aF55.185552124056336
aa(lp47
F16.760466159696637
aF48.18437095076987
aa(lp48
F69.00354629902347
aF-3.647115168317311
aa(lp49
F-22.38751980695442
aF11.693463227052476
aa(lp50
F57.52554130074212
aF15.000443086126774
aa(lp51
F59.28125756810258
aF1.0821427137047726
aa(lp52
F53.31982484461601
aF10.570037941178246
aa(lp53
F31.095268201600746
aF116.21462123742565
aa(lp54
F55.74939880408584
aF0.3714960137987752
aa(lp55
F64.78782720379695
aF-0.39322223210893037
aa(lp56
F-46.466124210351936
aF47.68808855968572
aa(lp57
F-26.51961053825524
aF50.40140918975108
aa(lp58
F-57.07606080105972
aF36.085534152562566
aa(lp59
F43.15837187924381
aF50.82328249566817
aa(lp60
F-43.05948224511797
aF20.920382764
aa(lp61
F15.991748715178824
aF-52.82677305058
aa(lp62
F60.84229143111748
aF-5.657341001927971
aa(lp63
F-63.258936956241854
aF-26.478695014685222
aa(lp64
F-19.800443909091857
aF61.707697866312735
aa(lp65
F39.55142690113807
aF8.155956935541436
aa(lp66
F-36.17617564871536
aF38.19738535273694
aa(lp67
F-50.039588477300235
aF-30.548211265189963
aa(lp68
F7.24985262026815
aF54.49660595484197
aa(lp69
F-32.982756040845466
aF11.793319686190916
aa(lp70
F74.84139678494998
aF-2.216081953066714
aa(lp71
F65.93906511740362
aF-20.247477068582153
aa(lp72
F-25.920200261380035
aF-50.49637938252672
aa(lp73
F20.796702540887214
aF46.490441374152
aa(lp74
F53.815637051452626
aF5.410026840228925
aa(lp75
F-7.220410647403406
aF50.473766680075315
aa(lp76
F-60.27967671757806
aF-18.76420110596736
aa(lp77
F-56.5458660738171
aF-4.68131373090793
aa(lp78
F-60.817502170084104
aF1.1208545135474655
aa(lp79
F-18.481016778585236
aF-27.78310662052224
aa(lp80
F-36.431267189037825
aF12.172546535191298
aa(lp81
F-27.083057943410523
aF-39.14004010577128
aa(lp82
F2.93627946168055
aF-40.40549985836426
aa(lp83
F4.499891908738585
aF-45.598546334544395
aa(lp84
F-45.18438539064561
aF41.20280929493668
aa(lp85
F-32.09601135112691
aF49.5863653318764
aa(lp86
F-70.88972276353364
aF-19.083692062461708
aa(lp87
F-45.33887990410832
aF18.700501842766204
aa(lp88
F48.91977498954067
aF2.008403346904278
aa(lp89
F46.69081904615657
aF4.579996872352341
aa(lp90
F-36.55778589141568
aF8.117144453683101
aa(lp91
F-2.510965740334051
aF-35.95439160369735
aa(lp92
F-11.600170740662536
aF52.38426065796739
aa(lp93
F74.49328973623071
aF3.37266140947561
aa(lp94
F-47.62532632509359
aF-32.74980383436533
aa(lp95
F-53.67066736989251
aF0.27749935952460514
aa(lp96
F2.8422790526163326
aF46.5533820087345
aa(lp97
F54.30165653918995
aF-26.04140866245175
aa(lp98
F74.40456340577528
aF-7.033509257239681
aa(lp99
F45.4342049924065
aF-32.21814946300596
aa(lp100
F-10.796700985571675
aF37.92425287659514
aa(lp101
F-24.295595703619703
aF40.31991304949774
aa(lp102
F-47.960459123060026
aF-9.97949998693099
aa(lp103
F58.041618709043384
aF-11.37830385914215
aa(lp104
F17.31611407971837
aF-44.75785146563834
aa(lp105
F-0.16782085225119128
aF-44.92376218108773
aa(lp106
F-33.37880982928857
aF44.173172716147654
aa(lp107
F-45.983170183947024
aF-35.99113359610354
aa(lp108
F-46.31373928738071
aF9.24641282228072
aa(lp109
F19.721778514702443
aF-63.94089017386268
aa(lp110
F-59.40995078538165
aF-22.23531873009422
aa(lp111
F-47.91717601959836
aF-20.397118638157338
aa(lp112
F-39.90753741185784
aF10.575942509485785
aa(lp113
F-18.40687275722558
aF49.839940264275775
aa(lp114
F57.54580444719137
aF-2.7024938001744467
aa(lp115
F-15.77660679598809
aF12.704200268836964
aa(lp116
F-61.179782336041704
aF-7.380103003376263
aa(lp117
F-19.109426476079687
aF10.171219663086955
aa(lp118
F65.43364065285232
aF-13.404642030081682
aa(lp119
F-33.34489247020622
aF18.132676693314842
aa(lp120
F-41.10342644490126
aF25.12261995907885
aa(lp121
F-36.47948854632483
aF-7.634262135298808
aa(lp122
F62.404620599605074
aF-17.46666088661491
aa(lp123
F-50.58935853163817
aF-18.341474277922938
aa(lp124
F-43.854659138741596
aF-32.52710856305028
aa(lp125
F-58.484984663319125
aF-26.059098952397022
aa(lp126
F77.61726227354708
aF3.8056456463308046
aa(lp127
F42.937404861254855
aF43.265451313773944
aa(lp128
F11.66143588436128
aF-16.615605995973603
aa(lp129
F-0.09488552582067003
aF-38.23881822426162
aa(lp130
F-57.6388945388607
aF-9.191778332731657
aa(lp131
F33.27086940875917
aF17.95945479871411
aa(lp132
F-63.75846165513029
aF-22.601290259603502
aa(lp133
F-3.5195643884785275
aF7.018631412595609
aa(lp134
F46.998033409367416
aF40.92734720488999
aa(lp135
F36.577177330554406
aF-43.86409592586661
aa(lp136
F-20.505121091523257
aF13.982102645296063
aa(lp137
F7.501433941379843
aF-16.58188315842094
aa(lp138
F15.519934628341298
aF68.97224190487012
aa(lp139
F-30.55938175095607
aF14.571223080030046
aa(lp140
F9.048213252314458
aF-50.451397000980045
aa(lp141
F48.14186261403402
aF9.719640560043075
aa(lp142
F12.429834826632222
aF46.75814636077717
aa(lp143
F40.93012041977168
aF22.9315544089711
aa(lp144
F-40.054269332337064
aF-39.395867221844014
aa(lp145
F9.850587948296162
aF-24.45263227151607
aa(lp146
F-49.25162697684055
aF16.699196790623898
aa(lp147
F42.419933693867804
aF14.293553883458442
aa(lp148
F23.878859695960944
aF30.509455426700356
aa(lp149
F41.77462650602001
aF-1.5914731699440543
aa(lp150
F-30.62790903144448
aF7.455955251939358
aa(lp151
F-24.210791328912904
aF-25.950914515024795
aa(lp152
F-33.25461102430099
aF-31.7689981995674
aa(lp153
F81.65217789023468
aF26.435504200324214
aa(lp154
F-27.70844170451091
aF-58.499415890413275
aa(lp155
F-38.11505732302246
aF-28.91591876730671
aa(lp156
F38.400809572186304
aF19.344775199355112
aa(lp157
F-46.68318323201863
aF60.44638940167026
aa(lp158
F-26.34987111419358
aF-2.944944782300138
aa(lp159
F15.657526224043323
aF-31.464867256950537
aa(lp160
F32.47314061135152
aF24.124443080480823
aa(lp161
F0.5782787720594388
aF-49.405441681074386
aa(lp162
F-10.957828959776915
aF48.08661649466205
aa(lp163
F20.535524131778754
aF-5.339864372807889
aa(lp164
F18.699922839000543
aF30.514724412359488
aa(lp165
F-1.4901283395086244
aF-55.694602394712064
aa(lp166
F58.07165527982272
aF-15.565699714025707
aa(lp167
F-52.00174031029375
aF-37.0498741546583
aa(lp168
F63.8056319133519
aF4.237344061438605
aa(lp169
F19.356951142350105
aF56.21840822690161
aa(lp170
F-47.248772401556224
aF21.631145320814134
aa(lp171
F-24.745278014827875
aF-21.532426946878473
aa(lp172
F38.87453463354699
aF-0.15923860229733486
aa(lp173
F39.648345024972
aF-11.851676262417785
aa(lp174
F-46.2588934628072
aF-2.5490318808766217
aa(lp175
F7.57810508123563
aF-53.69711844618118
aa(lp176
F-33.421400169585574
aF5.614469918181612
aa(lp177
F-7.124039718181168
aF-40.57737105673242
aa(lp178
F-35.49794182759982
aF24.562829640845976
aa(lp179
F-31.861611060848734
aF-5.732042361882365
aa(lp180
F-17.991365344857364
aF39.22331085141238
aa(lp181
F-21.448023512045282
aF71.64027966497052
aa(lp182
F7.754700242814811
aF67.17231475723442
aa(lp183
F14.482203851192772
aF-17.1943855412625
aa(lp184
F33.194277312207404
aF-28.606508033859264
aa(lp185
F19.001144084997076
aF-47.70390968914215
aa(lp186
F53.54360850826428
aF-13.009308099407603
aa(lp187
F-42.07709354424891
aF-12.567213221941483
aa(lp188
F-47.087081276597324
aF38.478541429682394
aa(lp189
F44.91582305405341
aF-22.86328333130142
aa(lp190
F20.90258777962725
aF-32.71956764512562
aa(lp191
F6.48739778956975
aF-43.40713459141928
aa(lp192
F-64.06888031796372
aF14.276811354207382
aa(lp193
F5.93625301105399
aF-48.87283398761323
aa(lp194
F-42.36660614889737
aF-21.848301984214412
aa(lp195
F-63.26049891497879
aF6.831770914233964
aa(lp196
F-11.553521036929725
aF34.180098388749315
aa(lp197
F-47.550075900948116
aF30.494446174556483
aa(lp198
F-36.26639688990591
aF45.373347060474906
aa(lp199
F-55.70850364939998
aF-22.394128651077285
aa(lp200
F-20.97013328234941
aF-63.28623719543111
aa(lp201
F41.988680379602236
aF3.6518587010369323
aa(lp202
F32.12738459478144
aF53.632371752173675
aa(lp203
F6.222683364047374
aF-38.697408137577035
aa(lp204
F17.055018519017338
aF36.281742526066495
aa(lp205
F-24.067957148652628
aF2.786830013515324
aa(lp206
F21.19701490481204
aF-21.16026331742686
aa(lp207
F48.381717029439315
aF23.276690911571038
aa(lp208
F-33.173129118823546
aF-28.957556203985213
aa(lp209
F-42.808792898664876
aF-29.36778318344486
aa(lp210
F27.780780366856483
aF45.36022179869545
aa(lp211
F19.057761412140174
aF-7.656999803008661
aa(lp212
F28.676753842398462
aF9.228772130672384
aa(lp213
F16.242811326149866
aF-40.32841398381852
aa(lp214
F28.123892138221972
aF-11.96676642598506
aa(lp215
F-20.83641877696614
aF7.0384137193285055
aa(lp216
F29.343162686699323
aF14.176717740690782
aa(lp217
F24.448541914700296
aF-27.217248954902505
aa(lp218
F70.12985050023669
aF24.579894527681294
aa(lp219
F37.92118206893244
aF-28.486740845052406
aa(lp220
F17.343660816217984
aF33.0220497286026
aa(lp221
F38.519596455829074
aF13.94532254377226
aa(lp222
F23.505674682891158
aF-12.660955763918448
aa(lp223
F-21.406027656229455
aF49.76075026469941
aa(lp224
F-46.57617914431245
aF-29.542354698975796
aa(lp225
F33.71269835542578
aF31.365490055830385
aa(lp226
F-38.86473040218231
aF-20.217977570080624
aa(lp227
F55.253022464170776
aF-31.868767450663164
aa(lp228
F9.667151527071951
aF-42.10139740984412
aa(lp229
F30.59037199906169
aF-7.791754980828027
aa(lp230
F40.5009731687045
aF-6.955424674987373
aa(lp231
F-47.917620928839874
aF-26.185861355220098
aa(lp232
F-39.084986102374785
aF-51.20479801556574
aa(lp233
F9.776767703614244
aF34.294321744852205
aa(lp234
F-14.606117497038861
aF27.406831858890335
aa(lp235
F-20.672108514643913
aF-54.88230341599452
aa(lp236
F72.77595499068745
aF7.517507214224543
aa(lp237
F40.59678932015162
aF26.6310671717383
aa(lp238
F37.55398204283162
aF-15.888815693999268
aa(lp239
F25.317782310996567
aF-3.0283791356555243
aa(lp240
F-18.283340829424002
aF-17.851202598010907
aa(lp241
F35.337370086377035
aF-24.54081622298851
aa(lp242
F-26.334259165598855
aF-74.37487937345894
aa(lp243
F-24.658552631188286
aF13.985804096556677
aa(lp244
F12.302387299262632
aF59.20359579566363
aa(lp245
F45.50239256367569
aF14.711717155693872
aa(lp246
F-1.646973365059548
aF-32.396466791360886
aa(lp247
F-14.776550711657391
aF35.39995291763078
aa(lp248
F-47.62555435109653
aF-17.11378445931063
aa(lp249
F-39.01216637311116
aF-23.915028165904417
aa(lp250
F-30.06258354615988
aF37.43908711350531
aa(lp251
F-42.303043190481546
aF16.683102885736513
aa(lp252
F26.419835684656814
aF-9.594875422890366
aa(lp253
F-38.04603955468235
aF21.54739357688939
aa(lp254
F37.11561197023852
aF-33.5365084903734
aa(lp255
F-12.274535926329486
aF-33.08038045630459
aa(lp256
F-15.909050744552983
aF48.1730211883733
aa(lp257
F-6.0029484637917685
aF-13.558955727577917
aa(lp258
F46.42111923635162
aF-14.432315217020426
aa(lp259
F-32.601298528660394
aF30.133089577735475
aa(lp260
F22.321533227257017
aF-8.588035197314495
aa(lp261
F42.52259918460803
aF-23.639737304295895
aa(lp262
F15.78439183174277
aF-20.275768364951734
aa(lp263
F0.5075725738616081
aF-0.3110166007798896
aa(lp264
F71.27556861935103
aF-7.578383865785612
aa(lp265
F-6.367050634270102
aF46.444215932637995
aa(lp266
F-9.798992634753729
aF44.961021747519844
aa(lp267
F-43.78985898626356
aF38.530126810231245
aa(lp268
F14.179266827198191
aF41.96625061243919
aa(lp269
F46.88815643459409
aF18.153559541380954
aa(lp270
F8.237336682999803
aF40.39773693371055
aa(lp271
F68.98680303357737
aF16.16671332068087
aa(lp272
F12.625577828961395
aF9.197442975714491
aa(lp273
F11.768867780150913
aF-19.74059830189276
aa(lp274
F-51.11337051367084
aF-27.294339262443504
aa(lp275
F25.64849046371348
aF41.53488350353059
aa(lp276
F8.200717098186573
aF-0.07431616021014244
aa(lp277
F30.66455947801974
aF-29.71937165886409
aa(lp278
F20.027903757525948
aF26.231821682810207
aa(lp279
F19.845985052589906
aF22.194608107712675
aa(lp280
F-6.503981849716945
aF-16.248273252681617
aa(lp281
F-12.395167261080529
aF-56.175520639655225
aa(lp282
F29.332737734404326
aF-48.11065939041437
aa(lp283
F52.23789673773156
aF-2.7555172274867936
aa(lp284
F-55.583749798945234
aF-30.788515234208795
aa(lp285
F-40.41483357229786
aF-17.280912977328942
aa(lp286
F4.1020705332979475
aF-31.83951803264199
aa(lp287
F8.429766897966559
aF-22.151192164871258
aa(lp288
F28.0058881897416
aF-75.110002051779
aa(lp289
F-28.721873508833923
aF41.35331359996138
aa(lp290
F15.962587989566309
aF19.12547835899108
aa(lp291
F-2.504806093513287
aF-13.759149934515325
aa(lp292
F-44.646037129238714
aF-26.4931629140672
aa(lp293
F-52.11425685862445
aF10.807105308249865
aa(lp294
F-49.12224115952748
aF0.6949967179680967
aa(lp295
F6.878894201345838
aF43.46421220053109
aa(lp296
F-29.333056832117613
aF27.499697917374366
aa(lp297
F-33.223027444946965
aF8.992308872130199
aa(lp298
F50.91035833472354
aF28.101167986068223
aa(lp299
F-40.39183470062153
aF-0.2092256315903406
aa(lp300
F-8.27302745677994
aF-46.64170859991399
aa(lp301
F28.95299792857483
aF-2.505019680114045
aa(lp302
F65.42621782992146
aF-4.5681231742833015
aa(lp303
F26.938321111276455
aF19.880518087044383
aa(lp304
F-34.499715167994445
aF-13.784281216405315
aa(lp305
F14.471081575504925
aF-24.123500045558117
aa(lp306
F-29.88307444318698
aF4.1253353119505745
aa(lp307
F39.32026281054425
aF35.237267539340564
aa(lp308
F-1.5967431540712222
aF21.286774919798074
aa(lp309
F23.06446016759514
aF-16.37361519730312
aa(lp310
F9.7791243652864
aF5.2423401788625625
aa(lp311
F13.653828386956146
aF-11.942847185415323
aa(lp312
F-0.9458997328899508
aF-21.921881696052598
aa(lp313
F4.593310046531924
aF13.012713920569293
aa(lp314
F-0.3933797058646985
aF10.648093046220378
aa(lp315
F-22.68233622599632
aF46.27785025089365
aa(lp316
F-16.917499849078865
aF-22.282742938074808
aa(lp317
F8.815831933723139
aF21.5038503576989
aa(lp318
F25.28139040283865
aF6.019361493645978
aa(lp319
F-31.221563680066662
aF-23.571586592962866
aa(lp320
F54.3627246480613
aF17.577671177590904
aa(lp321
F29.986360536444067
aF-22.424083822323848
aa(lp322
F-3.3812908550279457
aF-3.5713102697282624
aa(lp323
F16.785858987997095
aF13.35234319358597
aa(lp324
F14.365885598535693
aF-6.064256012263972
aa(lp325
F12.689582983522458
aF35.91834051838503
aa(lp326
F-3.1705643339480916
aF-46.11064561229304
aa(lp327
F19.17332170865218
aF4.100024136275995
aa(lp328
F4.551149492553978
aF-9.727425376050254
aa(lp329
F-44.130079893280595
aF2.883228245215367
aa(lp330
F-18.016096072963368
aF-7.207842832624173
aa(lp331
F-0.5215154851056139
aF16.096123114076292
aa(lp332
F15.122430127843298
aF30.81911874016315
aa(lp333
F-14.67866522807716
aF17.733012504669013
aa(lp334
F19.59090515609434
aF-11.391798747833441
aa(lp335
F-8.548863314971474
aF-29.78354146835316
aa(lp336
F-2.860422429468641
aF-19.220953774781414
aa(lp337
F-8.19828268210461
aF2.4208641990905337
aa(lp338
F24.274704970903482
aF11.43926082755349
aa(lp339
F13.211917828180011
aF22.50595495774029
aa(lp340
F0.6287939966749021
aF34.03146255965171
aa(lp341
F-54.44632529977688
aF-7.630013261539468
aa(lp342
F-7.096328378216093
aF29.93212860448948
aa(lp343
F-29.529241091028748
aF-12.647668505274838
aa(lp344
F29.893119744891916
aF-17.40316147011285
aa(lp345
F-34.97282555333482
aF0.9995510361943706
aa(lp346
F3.3595730813383473
aF-37.40074789226864
aa(lp347
F-29.569740986612295
aF10.269861889675793
aa(lp348
F4.813050991686527
aF17.117817616322363
aa(lp349
F-18.909463655574964
aF46.722164835619104
aa(lp350
F23.936941931907572
aF-19.553664117457366
aa(lp351
F33.667856229976074
aF12.715593757231366
aa(lp352
F34.12696815451666
aF-11.255607401707856
aa(lp353
F1.3462813056770837
aF-18.63320242988603
aa(lp354
F-1.9734764817965742
aF-41.66814113233092
aa(lp355
F-44.814718019341456
aF14.774083472187472
aa(lp356
F-2.4045882261676423
aF-26.70356754898766
aa(lp357
F34.63838301992586
aF-1.06028436888746
aa(lp358
F-22.213144696001223
aF-7.800731673761998
aa(lp359
F30.5095931909332
aF2.544699414503991
aa(lp360
F3.8021716555030283
aF-26.40498385606051
aa(lp361
F12.757634562829061
aF-2.3159390966644082
aa(lp362
F-13.368282300803164
aF-14.932899774095436
aa(lp363
F-17.4897767576505
aF5.563114667152052
aa(lp364
F-2.9983166347861543
aF33.70719830983489
aa(lp365
F25.008926111577757
aF1.295556985990571
aa(lp366
F14.624924961327354
aF3.2077730748973172
aa(lp367
F-17.063205454528752
aF8.384847504361831
aa(lp368
F8.096733707075916
aF-6.357992865827629
aa(lp369
F-9.931597956286081
aF24.244988099654243
aa(lp370
F29.30435415054813
aF27.331153141357966
aa(lp371
F64.41561704540626
aF8.43997074760808
aa(lp372
F-8.520328999256563
aF36.71694710764009
aa(lp373
F19.13044073569312
aF-41.94796021030712
aa(lp374
F35.80716003956983
aF-6.005380939330197
aa(lp375
F-56.67996794748591
aF-18.644814259570236
aa(lp376
F-40.72690604033002
aF-4.287943967508727
aa(lp377
F21.10266246652296
aF15.816020562782109
aa(lp378
F3.578971774358117
aF3.6845106645452645
aa(lp379
F5.240427210796683
aF7.808762829606992
aa(lp380
F1.643378333524283
aF-34.713471354452466
aa(lp381
F-5.171357766107704
aF-22.009480865934666
aa(lp382
F-10.769064477878484
aF8.167965344245173
aa(lp383
F5.214146569504087
aF33.53941900214028
aa(lp384
F19.78713674504172
aF8.798720010511685
aa(lp385
F6.1001782325281155
aF-35.414424721018726
aa(lp386
F47.7294738959167
aF-7.886891158667069
aa(lp387
F-15.042625887491173
aF-47.51772386320107
aa(lp388
F-21.934936898664073
aF31.920664094502087
aa(lp389
F-20.469262342089483
aF26.34210034312639
aa(lp390
F-14.863392110876495
aF43.190352066010355
aa(lp391
F7.931609430687294
aF13.986874238196469
aa(lp392
F-5.535362260772428
aF43.10732796680509
aa(lp393
F-19.943427410171676
aF0.3439877261185589
aa(lp394
F-25.97560966148922
aF20.813268510034476
aa(lp395
F7.126801316679061
aF26.97341983759756
aa(lp396
F-21.89724525815209
aF20.766568112349542
aa(lp397
F-0.353204755469434
aF-6.578210168097063
aa(lp398
F18.193010489217418
aF-1.38702440879637
aa(lp399
F-30.57769634023982
aF-1.6078297440206584
aa(lp400
F33.34751053734166
aF6.839982092031317
aa(lp401
F-7.471154381568446
aF-34.17707426278566
aa(lp402
F-11.62299472208034
aF-1.0403563849356379
aasS'error'
p403
F1.9715492725372314
s.