(dp0
S'layout'
p1
(lp2
(lp3
F-83.9581850215384
aF-9.985668580801356
aa(lp4
F-37.65389787155125
aF-35.12765077620429
aa(lp5
F-4.05847408123639
aF46.329896967057024
aa(lp6
F-66.10929879509267
aF5.538952362268607
aa(lp7
F18.329911218884874
aF-32.98851005008954
aa(lp8
F-12.576996237620643
aF-58.739693207620135
aa(lp9
F-36.31320327249077
aF53.343476525692665
aa(lp10
F-95.43390451994833
aF-41.92289909516421
aa(lp11
F50.598096547760264
aF-35.46615617572046
aa(lp12
F64.80236659702003
aF6.703182989835708
aa(lp13
F54.17338100894046
aF48.462386319177
aa(lp14
F-68.54724040294295
aF27.640127419408657
aa(lp15
F45.80025909053718
aF-61.0116967865674
aa(lp16
F-11.153721877382491
aF-21.886979121856083
aa(lp17
F38.09923986466557
aF-44.110339248753434
aa(lp18
F-45.953147126493775
aF43.6301546783558
aa(lp19
F53.991900631889294
aF5.713518609864178
aa(lp20
F-123.15845982060978
aF29.997448130807538
aa(lp21
F-40.23702507053331
aF-10.128877312795613
aa(lp22
F37.73557646460471
aF-16.790748875101666
aa(lp23
F13.312707250813917
aF-43.84964129051411
aa(lp24
F-92.38914210391057
aF-26.975631762527502
aa(lp25
F29.937951303439693
aF137.3688968484439
aa(lp26
F50.946500056800296
aF-12.659347342154343
aa(lp27
F-63.16762124600971
aF39.00722934410022
aa(lp28
F6.314248561612091
aF21.119826623842478
aa(lp29
F45.47535972748665
aF-2.3403209843577786
aa(lp30
F-40.284846588999145
aF4.082379007722709
aa(lp31
F48.26886577655609
aF36.827993685639925
aa(lp32
F36.11852002655449
aF-78.6296380695347
aa(lp33
F95.11431508827233
aF42.36529502769769
aa(lp34
F0.5648643902281794
aF34.19163089983013
aa(lp35
F19.89946199645319
aF25.427150449847893
aa(lp36
F93.02229749763423
aF0.5160249346547718
aa(lp37
F-59.77185013024528
aF-18.432044196127688
aa(lp38
F-46.46536226107856
aF-22.05631063934997
aa(lp39
F17.201583775079122
aF-16.84456023902278
aa(lp40
F-71.46697532983542
aF-9.372713238222333
aa(lp41
F29.47540850306688
aF-57.07530740947881
aa(lp42
F-49.59178231550947
aF57.31156055766434
aa(lp43
F-32.01909355973448
aF-19.250796010456767
aa(lp44
F63.226498544612625
aF-61.95276484398435
aa(lp45
F-79.25667225324393
aF-33.9349542751385
aa(lp46
F24.360357689661885
aF55.74942930441959
aa(lp47
F10.383447318137005
aF55.67844753189579
aa(lp48
F85.42276104587233
aF-11.033512925706463
aa(lp49
F-6.907344382982385
aF-10.66939817277836
aa(lp50
F33.38457792577842
aF15.901514225839852
aa(lp51
F80.72403777437377
aF0.7114046206725771
aa(lp52
F33.95557479932993
aF-1.4068457306059396
aa(lp53
F6.483222026899359
aF0.18502127684236658
aa(lp54
F76.57389864186449
aF10.36591083293049
aa(lp55
F91.46931543619185
aF12.840720670651612
aa(lp56
F-21.86644303239217
aF54.2694534232982
aa(lp57
F-40.76889275880893
aF21.605647883091294
aa(lp58
F-60.863038557670315
aF19.981275485801255
aa(lp59
F36.37571737221201
aF38.8485856431992
aa(lp60
F-28.420984378174357
aF26.346244782090384
aa(lp61
F25.139500462258034
aF-40.55647027710232
aa(lp62
F70.46639292320994
aF-33.680132338012825
aa(lp63
F-71.53782371537348
aF-22.896564895100802
aa(lp64
F-75.53171857828491
aF59.81866262594634
aa(lp65
F44.84781874910933
aF14.6549780030661
aa(lp66
F-53.309147641677335
aF27.840888648926388
aa(lp67
F-83.02973987213852
aF-21.120356624776942
aa(lp68
F20.671893833962354
aF66.72651380227096
aa(lp69
F-20.63829707688452
aF-0.6789837341525559
aa(lp70
F105.52981581963572
aF3.2851130816845906
aa(lp71
F66.35038876619117
aF-19.692397213207585
aa(lp72
F-19.563649736050017
aF-43.83125636482645
aa(lp73
F22.50951199978477
aF7.344097770000275
aa(lp74
F70.86756780942851
aF-6.00245454224382
aa(lp75
F-8.601514283877927
aF27.752113575934445
aa(lp76
F-65.23456778258792
aF-32.73716145021093
aa(lp77
F-60.79113291975873
aF-5.426656223915658
aa(lp78
F-105.1940435299719
aF-0.4037106140978887
aa(lp79
F-33.94566568636247
aF-52.64133793441429
aa(lp80
F-31.00720538754621
aF-4.294616265524105
aa(lp81
F-22.53677770405311
aF-31.004454543736397
aa(lp82
F7.325121766349339
aF-24.332928254466136
aa(lp83
F26.40637787259289
aF-21.81748311455089
aa(lp84
F-43.896791708404045
aF32.99760465860638
aa(lp85
F-80.65759056917824
aF37.53797487768733
aa(lp86
F-96.39771576958643
aF-13.590389291760712
aa(lp87
F-30.49925400568296
aF37.3681582346746
aa(lp88
F60.138737010711836
aF-5.498696168559538
aa(lp89
F78.43269047272196
aF-22.41869204595644
aa(lp90
F-21.187656773462965
aF-12.31277125303405
aa(lp91
F2.71135852519672
aF-33.69850970929018
aa(lp92
F-15.398184068268996
aF39.55595217046234
aa(lp93
F79.84267270166694
aF23.64008160605423
aa(lp94
F-10.224915255292402
aF-80.50998344965272
aa(lp95
F-50.91910753888354
aF-0.4714064554829795
aa(lp96
F12.103205804332351
aF38.17459202807146
aa(lp97
F109.710281032552
aF-29.972897330478297
aa(lp98
F98.78883627632814
aF-12.51287217714696
aa(lp99
F37.19962803458153
aF-29.927694130965495
aa(lp100
F-10.857490869567796
aF15.50743163794504
aa(lp101
F-25.248985085524104
aF13.233721994800167
aa(lp102
F-78.2108783213831
aF4.031810791802456
aasS'error'
p103
F1.0345840454101562
s.