(dp0
S'layout'
p1
(lp2
(lp3
F-41.03204965463008
aF-35.00967780093228
aa(lp4
F-48.98391896415151
aF-45.13180242319585
aa(lp5
F2.479749138852063
aF49.58977540498196
aa(lp6
F-49.355532800085406
aF7.983658372770205
aa(lp7
F7.101010929536179
aF-37.92062653224308
aa(lp8
F-5.3960205911655414
aF-55.87843486883819
aa(lp9
F-45.22298406446702
aF-6.083892678228981
aa(lp10
F-44.45895521811054
aF-15.328722749267408
aa(lp11
F45.32445860741541
aF-29.060618093119896
aa(lp12
F46.337150752976456
aF4.518733566982035
aa(lp13
F22.691285435488336
aF1.947604926077421
aa(lp14
F-48.204503266691795
aF13.071841850652412
aa(lp15
F19.36482404110198
aF-44.18704597247238
aa(lp16
F-13.16227666854694
aF28.8300402016909
aa(lp17
F29.455204878667427
aF-32.470655931561076
aa(lp18
F-18.823816775408027
aF22.92888136121465
aa(lp19
F32.88863689288967
aF-8.431560144073078
aa(lp20
F-57.012595986573785
aF12.625203997733575
aa(lp21
F-35.609205030671696
aF17.40457634290821
aa(lp22
F24.21821859191883
aF-25.05475766283474
aa(lp23
F3.0889746550753303
aF-24.561150811054844
aa(lp24
F-29.79513083180203
aF-18.87027197226124
aa(lp25
F-0.5776492984944748
aF42.72598701268138
aa(lp26
F37.31919902477988
aF-8.127040065475914
aa(lp27
F-51.152295104216414
aF23.243549754998178
aa(lp28
F32.73639662328348
aF22.32215287418571
aa(lp29
F44.073393097074266
aF-15.609437203099338
aa(lp30
F-51.22951399717936
aF17.796644588435093
aa(lp31
F46.09813117862275
aF27.96371781498159
aa(lp32
F-17.227188724506735
aF-53.347902870428754
aa(lp33
F-2.2828513529132173
aF39.83701929645345
aa(lp34
F-24.319298250498374
aF38.72307386698609
aa(lp35
F-3.3801140255674094
aF26.656137567908672
aa(lp36
F57.23618203152928
aF8.266239095317374
aa(lp37
F-42.160718409975
aF-28.61096239104778
aa(lp38
F-42.37395271878576
aF-3.2610716896117173
aa(lp39
F21.375461866954446
aF-7.103751441163154
aa(lp40
F-33.77943895613279
aF-5.334934766546857
aa(lp41
F45.27279191304389
aF-8.712892880957549
aa(lp42
F-34.960942737617664
aF28.285199982790797
aa(lp43
F-34.75787058812995
aF15.99580201601003
aa(lp44
F32.618365151796084
aF-47.46454789293616
aa(lp45
F-42.88388610961505
aF-36.73479787107578
aa(lp46
F-4.7179986615809355
aF41.35716423600595
aa(lp47
F14.378046880098273
aF29.940941919229722
aa(lp48
F54.36964594412761
aF6.1258355437862715
aa(lp49
F-14.969342585777417
aF35.00482692259266
aa(lp50
F44.37729978705666
aF18.15757881192388
aa(lp51
F57.0365367447808
aF19.319264090986653
aa(lp52
F42.034502016694795
aF11.674392754809245
aa(lp53
F21.70908787771636
aF71.30101299275638
aa(lp54
F47.158541016601916
aF6.353437752064031
aa(lp55
F58.030091492071165
aF-3.4296977718070414
aa(lp56
F-51.34175112072934
aF19.184663720766267
aa(lp57
F-30.026012911933464
aF34.708866725876064
aa(lp58
F-57.67105339527891
aF16.44548545705552
aa(lp59
F21.40581312305735
aF23.59879942824615
aa(lp60
F-26.716902492651453
aF24.71251640441175
aa(lp61
F12.231682621487975
aF-48.05858855972985
aa(lp62
F55.39885367183391
aF7.983785625956625
aa(lp63
F-45.1181628106019
aF-33.84345830221694
aa(lp64
F22.40114062889429
aF35.14916121408642
aa(lp65
F40.34436398538717
aF20.070856032604485
aa(lp66
F-51.388082430975885
aF12.937802356690842
aa(lp67
F-37.969486368720915
aF-35.11710959173901
aa(lp68
F-1.4372563777960192
aF44.77902357620248
aa(lp69
F-17.760636411534154
aF14.98175746928801
aa(lp70
F62.59088385200212
aF4.499449305714383
aa(lp71
F48.5732522396565
aF-10.32554472170142
aa(lp72
F-25.040831826122936
aF-29.334979800137745
aa(lp73
F11.26177078424732
aF36.566946955996784
aa(lp74
F38.33993831694657
aF-7.199037954339463
aa(lp75
F-27.76878220181727
aF19.43570218963287
aa(lp76
F-38.16894889250506
aF-7.843453557837804
aa(lp77
F-54.641739921160735
aF2.2103030087174784
aa(lp78
F-64.67281715612857
aF14.414706124388175
aa(lp79
F-23.399153009366064
aF-36.24538325230503
aa(lp80
F-31.639283644809414
aF16.657872488144147
aa(lp81
F-26.560884335061456
aF13.714556182494595
aa(lp82
F4.625668597770398
aF-19.885887886928778
aa(lp83
F17.72766917598483
aF-2.1099387677322734
aa(lp84
F-53.85645965595266
aF16.413411272010308
aa(lp85
F-30.140517524418406
aF37.61058907703117
aa(lp86
F-54.52358797617875
aF-18.424707809041337
aa(lp87
F-27.132115597820984
aF15.363078511370746
aa(lp88
F36.62596601938687
aF-12.0177644864877
aa(lp89
F46.29429812357069
aF-3.6932285273757803
aa(lp90
F-31.27627033831942
aF13.324018974758925
aa(lp91
F0.8797950599211086
aF-26.910076098952352
aa(lp92
F-7.508444025686262
aF56.673362485598844
aa(lp93
F56.32006459361397
aF4.886252149949282
aa(lp94
F-39.69072394160552
aF-33.955285364365906
aa(lp95
F-46.11802579168106
aF0.8823354990283937
aa(lp96
F6.201615309048976
aF41.033265744065396
aa(lp97
F38.23522147366564
aF-21.288736287237942
aa(lp98
F64.50564190159047
aF6.137391586796198
aa(lp99
F44.06531562171429
aF-20.251312491449013
aa(lp100
F-14.771169813053021
aF39.78419065602464
aa(lp101
F-27.0908081973152
aF17.89929713661307
aa(lp102
F-37.887631166923256
aF-3.278883541527212
aa(lp103
F46.03092737311842
aF0.6164198929902549
aa(lp104
F17.288525270664206
aF-49.27174788994301
aa(lp105
F19.759556846519196
aF-33.603332716407564
aa(lp106
F-48.080212340199466
aF18.339478963365615
aa(lp107
F-36.86993318884209
aF-37.293818580353886
aa(lp108
F-55.554192761179415
aF17.3814694513776
aa(lp109
F30.38958614662074
aF-51.96107757469767
aa(lp110
F-43.15439060329848
aF-31.938291907505057
aa(lp111
F-38.062128308207356
aF-27.860305236217858
aa(lp112
F-30.20712214517861
aF32.68372047414399
aa(lp113
F-49.77405500194814
aF13.044527697320046
aa(lp114
F54.00903681722038
aF9.12438076114089
aa(lp115
F-23.333489432922704
aF21.96395799507921
aa(lp116
F-47.265007776167515
aF-10.748420265829983
aa(lp117
F-23.417298637037298
aF20.275306963555938
aa(lp118
F46.947272645539094
aF-5.276101339918984
aa(lp119
F-55.19627533559068
aF10.536963684408217
aa(lp120
F-39.35307051209536
aF25.777706782213933
aa(lp121
F-34.70725634704213
aF10.481919372636195
aa(lp122
F36.03038221909945
aF-14.163673085207565
aa(lp123
F-44.637084451157584
aF-29.748193788449747
aa(lp124
F-37.87469170413016
aF-33.409689114807165
aa(lp125
F-49.26855107188245
aF-18.804682445897633
aa(lp126
F58.828060967903355
aF4.236257214670549
aa(lp127
F23.905856553962547
aF48.80693906526912
aa(lp128
F-12.661136126630932
aF0.46949080743607174
aa(lp129
F0.2398085363093365
aF-24.799204824447855
aa(lp130
F-58.44207147152928
aF20.774931822476937
aa(lp131
F26.990169564776117
aF16.33548693616472
aa(lp132
F-42.85427588986692
aF-11.414161653953643
aa(lp133
F33.38449654615143
aF-6.173965315694573
aa(lp134
F35.8286399078811
aF41.24148573897403
aa(lp135
F41.14786835334225
aF-35.289478339131136
aa(lp136
F-15.212300726484171
aF33.36501540393004
aa(lp137
F6.0641183148031645
aF-25.821797710641164
aa(lp138
F5.593756171566297
aF61.04780251507256
aa(lp139
F-29.453398959937143
aF28.45220196254892
aa(lp140
F21.508613282091222
aF-10.360467362445553
aa(lp141
F40.00857949932454
aF-11.528159361765951
aa(lp142
F32.60315367632086
aF28.17802783183244
aa(lp143
F24.72888600117682
aF0.9717854038417965
aa(lp144
F-53.24032373270726
aF12.55198837648705
aa(lp145
F11.150703649283123
aF-29.58470167954251
aa(lp146
F-46.78429317048863
aF16.11990667844222
aa(lp147
F36.96656020034733
aF9.815568362535108
aa(lp148
F36.00785464072289
aF17.078035875860905
aa(lp149
F36.00143010120108
aF-10.27899723316689
aa(lp150
F-26.33354475413986
aF16.637896174782895
aa(lp151
F-39.855174826669256
aF-7.08947029122454
aa(lp152
F-30.886030488589117
aF4.8628479510908
aa(lp153
F65.75939244253478
aF18.40592403811582
aa(lp154
F-11.072886109491387
aF-47.73907729430652
aa(lp155
F-44.82871941505506
aF-16.875621284439603
aa(lp156
F31.20769866228545
aF15.712516128703012
aa(lp157
F-36.14474988486577
aF2.1038829667199987
aa(lp158
F-30.069763973389477
aF11.668907428947772
aa(lp159
F-39.36592123831247
aF-32.42680263683271
aa(lp160
F25.585610648073505
aF37.175619910161245
aa(lp161
F-7.154846362573156
aF-25.78696129045598
aa(lp162
F-8.372162407254708
aF39.283963024454444
aa(lp163
F17.16954704828773
aF0.9763930424606969
aa(lp164
F22.43842128749146
aF-1.1692866696430013
aa(lp165
F-7.5628553535498355
aF-35.499220989704256
aa(lp166
F50.712635640296014
aF-4.460936961387583
aa(lp167
F-39.62663164379506
aF-36.41678168440088
aa(lp168
F60.76551392270175
aF12.555727961174695
aa(lp169
F12.488711859584818
aF42.96960136533759
aa(lp170
F-32.55777581498238
aF25.866053655830434
aa(lp171
F-37.20878719853404
aF-4.988609063084663
aa(lp172
F34.78915382894765
aF-13.121507845045603
aa(lp173
F32.973730933133226
aF-20.451816910943965
aa(lp174
F-52.69945218704992
aF8.063928921851039
aa(lp175
F21.03180519443294
aF-22.78674935863594
aa(lp176
F-29.704325706179453
aF20.09128692275544
aa(lp177
F0.1327572077062317
aF-38.74590537700006
aa(lp178
F-26.25002400509667
aF21.20637827182033
aa(lp179
F-29.19785415248334
aF18.054267915412822
aa(lp180
F-24.781097493472615
aF34.91641708671805
aa(lp181
F-15.704668779344246
aF53.91277918967348
aa(lp182
F23.90801794299656
aF42.57835816524051
aa(lp183
F-10.733119225400268
aF-0.4797899226796724
aa(lp184
F16.428040341094537
aF-27.802176061946295
aa(lp185
F15.54287168727077
aF-47.34157747208286
aa(lp186
F33.58497839612152
aF-11.501735361771532
aa(lp187
F-44.91293613471244
aF-18.050541260488757
aa(lp188
F-56.63020298236722
aF15.682678481106539
aa(lp189
F28.78119018574914
aF-28.62879095701615
aa(lp190
F-14.38715666808876
aF-33.81543465922803
aa(lp191
F-9.068984460551633
aF-16.922327137632024
aa(lp192
F-54.45522371558843
aF4.261054424680705
aa(lp193
F20.80882901337004
aF-8.597967896347036
aa(lp194
F-41.058237336791706
aF-5.180077251558837
aa(lp195
F-55.165840713146046
aF-15.712204391484772
aa(lp196
F-1.6446465715838545
aF23.94232565975566
aa(lp197
F-3.8213141652894205
aF12.859479146586807
aa(lp198
F-51.09519757968769
aF24.603967983557414
aa(lp199
F-42.49651180485195
aF-7.439953700098925
aa(lp200
F3.4277830611217834
aF-29.98685102737142
aa(lp201
F23.5410935186297
aF-7.4097755069585425
aa(lp202
F13.121521771779275
aF47.26785279017623
aa(lp203
F3.395001101941995
aF-22.60543127105103
aa(lp204
F26.25701123348499
aF1.4374228809450633
aa(lp205
F-24.124502227571597
aF23.132223650331163
aa(lp206
F24.621487960193914
aF-33.26934588033433
aa(lp207
F43.72856702024752
aF14.968752336825537
aa(lp208
F-30.087498466993768
aF2.725825310008745
aa(lp209
F-35.698977233550444
aF-34.339625449615234
aa(lp210
F14.35366670210266
aF38.62472057203535
aa(lp211
F19.297821705358743
aF-0.9705233478624226
aa(lp212
F-31.050812965816654
aF-4.841011223475736
aa(lp213
F10.989389391549786
aF-36.543566681896294
aa(lp214
F25.67195134110007
aF-8.057528234193422
aa(lp215
F-20.73616845789914
aF14.107287359025813
aa(lp216
F40.26882223429383
aF-9.940263843868232
aa(lp217
F31.77147054307376
aF-42.377944369776515
aa(lp218
F50.3708500965827
aF29.46064704543613
aa(lp219
F34.91390659379431
aF-36.16243384634111
aa(lp220
F21.22921996038825
aF-3.670352310414978
aa(lp221
F35.14354851903027
aF19.09115589224644
aa(lp222
F24.338225112704365
aF-9.547559898197436
aa(lp223
F-50.5967623821521
aF14.56198297656432
aa(lp224
F-41.19881674086885
aF-32.627125852932004
aa(lp225
F41.49693057965262
aF28.558097871269553
aa(lp226
F-41.144242214939716
aF-9.886904444405268
aa(lp227
F63.37990663475115
aF2.839068695599393
aa(lp228
F20.250783696453997
aF-18.945039378758455
aa(lp229
F23.060623559070052
aF-18.69684373948552
aa(lp230
F41.31106428820255
aF-1.1230275283688114
aa(lp231
F-39.89814778400465
aF-29.629088092095607
aa(lp232
F-30.543126225645732
aF-46.38813104126091
aa(lp233
F20.205881020598508
aF32.43956117774991
aa(lp234
F-3.1990686675866495
aF42.46752815804297
aa(lp235
F-20.340089946206334
aF-42.127630580350264
aa(lp236
F60.69519973934911
aF9.082834718911329
aa(lp237
F15.529168047719962
aF11.86568357690782
aa(lp238
F51.92815499731116
aF-1.6745184213289328
aa(lp239
F-33.83375843458557
aF-7.157167260070977
aa(lp240
F-27.654910457583842
aF-19.22899344448737
aa(lp241
F21.559003529581293
aF-17.411030867248492
aa(lp242
F-23.45307705056923
aF-47.970786522460095
aa(lp243
F-16.146910815714648
aF39.322738215199394
aa(lp244
F-18.231783776889422
aF47.66420633089991
aa(lp245
F36.09040547663185
aF14.792491647454991
aa(lp246
F-18.177702386317566
aF-32.26457871836608
aa(lp247
F-18.299169529269495
aF31.215251607183795
aa(lp248
F-37.07064573378339
aF-12.191796809220927
aa(lp249
F-39.66643031351482
aF-15.932722135115123
aa(lp250
F-58.59364628591632
aF21.66685044077022
aa(lp251
F-31.860541410645588
aF23.430123056423845
aa(lp252
F21.189226925869637
aF-29.96792275686449
aa(lp253
F-13.268475845282035
aF27.087892617656518
aa(lp254
F25.09876648118292
aF-4.098646233779589
aa(lp255
F-7.942084374904705
aF-41.35787201567014
aa(lp256
F-28.716083602307798
aF16.64012392439424
aa(lp257
F10.441777431618904
aF-5.755749016345031
aa(lp258
F42.92565071599767
aF-14.10049018693737
aa(lp259
F-24.702175101498874
aF28.93877649696599
aa(lp260
F6.231594689644041
aF-20.951463421759474
aa(lp261
F34.806622629669135
aF-32.2920243967513
aa(lp262
F2.538446975543568
aF-21.348922927180798
aa(lp263
F34.1885786057195
aF-9.5727839854272
aa(lp264
F64.18550097758586
aF7.827068019601388
aa(lp265
F-3.947858225923371
aF29.805313422588938
aa(lp266
F-6.957726995893726
aF37.006452184436625
aa(lp267
F-48.86121530195298
aF15.224512327888872
aa(lp268
F30.872776110806917
aF29.842985249341442
aa(lp269
F30.27324339786714
aF-6.470740672415144
aa(lp270
F3.6629144731997774
aF-18.827435103068616
aa(lp271
F47.991226274513686
aF22.322416896594284
aa(lp272
F56.83624989505273
aF12.632487601261827
aa(lp273
F26.470344835765655
aF9.193913754491678
aa(lp274
F-41.87600207764753
aF-30.584071170617847
aa(lp275
F25.920839873518307
aF39.019357544107194
aa(lp276
F44.07071019503154
aF5.121911293240597
aa(lp277
F11.858664300240928
aF-23.972482586806287
aa(lp278
F33.74418306048574
aF32.56694081371417
aa(lp279
F21.86696842827142
aF2.6889799948252775
aa(lp280
F12.475711774069888
aF-7.369239248483597
aa(lp281
F1.6433198769055133
aF-45.04794211911839
aa(lp282
F23.55391146583583
aF-47.26759613768466
aa(lp283
F31.552188292174613
aF-15.152949245905363
aa(lp284
F-42.551760084325885
aF-33.920239862654526
aa(lp285
F-35.36096344328059
aF-1.5047051228144934
aa(lp286
F12.053008339624483
aF-27.665713688717776
aa(lp287
F10.215970971141818
aF-28.821839514825417
aa(lp288
F6.072550451890766
aF-52.909570115877656
aa(lp289
F-28.846554866908022
aF22.65130343310343
aa(lp290
F33.710851555698675
aF22.792648218006015
aa(lp291
F9.5973642239204
aF-1.8440632132323247
aa(lp292
F-40.12049528008794
aF-31.14869106887775
aa(lp293
F-52.49274337935025
aF14.395306649875995
aa(lp294
F-53.0392947712349
aF10.533446865426118
aa(lp295
F16.50113672790092
aF23.265889865528468
aa(lp296
F-23.162208860538804
aF31.042595146631108
aa(lp297
F-22.156101932281288
aF17.111491910288315
aa(lp298
F48.72646414589671
aF10.18169779297787
aa(lp299
F-37.99099571892481
aF-0.5444946211361965
aa(lp300
F9.604183067236876
aF-32.633286610233235
aa(lp301
F-13.861188645593193
aF4.507311453044839
aa(lp302
F60.39435528677225
aF2.7298572509569996
aa(lp303
F23.525003602392555
aF28.81062587003137
aa(lp304
F-34.82576950355368
aF-3.857454129674671
aa(lp305
F25.755176778964778
aF-21.999571658960512
aa(lp306
F-34.21973798530012
aF22.82237705436641
aa(lp307
F52.26767296727554
aF9.052805076554254
aa(lp308
F-1.1400245944811918
aF-10.883052012919936
aa(lp309
F20.890109898036705
aF-31.602605669939056
aa(lp310
F55.62631859027257
aF10.462432419145147
aa(lp311
F29.03162263690798
aF-23.038305613662402
aa(lp312
F26.696995336032543
aF-12.297886062384562
aa(lp313
F10.909930243845501
aF-15.7192024863085
aa(lp314
F52.93746531241674
aF4.823359175872781
aa(lp315
F-35.144456798765894
aF31.598797700955423
aa(lp316
F-30.757163341510264
aF-22.34474156140942
aa(lp317
F2.3123580843279172
aF36.753111855361055
aa(lp318
F48.29478360065298
aF12.076505436555713
aa(lp319
F-34.9642060641965
aF-31.13070689979622
aa(lp320
F50.983463252596245
aF13.404098347829994
aa(lp321
F28.942948045991077
aF-30.24864967901404
aa(lp322
F13.35310660747809
aF-13.523898819767048
aa(lp323
F44.016868915467064
aF2.3989081805488643
aa(lp324
F35.43247505517478
aF-6.56433075408081
aa(lp325
F20.232649028279397
aF22.73977781084025
aa(lp326
F23.48620770349518
aF-30.750729189853743
aa(lp327
F27.01693213364184
aF-2.279724495727572
aa(lp328
F32.36686565725202
aF-1.6647741931026738
aa(lp329
F-63.8891343609832
aF16.82622311745833
aa(lp330
F-29.025090389999967
aF-7.197026114999749
aa(lp331
F8.403408964293577
aF-25.845048646619166
aa(lp332
F25.829658057963613
aF-0.859875652558366
aa(lp333
F-35.63148386942531
aF-5.519688902256879
aa(lp334
F22.739497494909816
aF-4.446611426199981
aa(lp335
F-0.8979301662128657
aF-22.13679993193558
aa(lp336
F18.80639977376836
aF-14.861851189900813
aa(lp337
F-5.019398960253544
aF39.33100651969258
aa(lp338
F28.141322594479735
aF17.523184095207725
aa(lp339
F4.233830369527477
aF33.257525327108574
aa(lp340
F-8.381037084297711
aF44.657973829599655
aa(lp341
F-59.23167484954716
aF9.65330394695526
aa(lp342
F6.646250763920517
aF45.11111029564097
aa(lp343
F-55.62562476434289
aF8.136316845179493
aa(lp344
F52.62617513271607
aF-23.56615442616996
aa(lp345
F-33.94565460959022
aF10.038010051168754
aa(lp346
F-7.68968881887728
aF-22.01605099006445
aa(lp347
F-23.379945161666864
aF15.84563142562693
aa(lp348
F2.8862986680610665
aF-8.567867115273136
aa(lp349
F-25.57359697521945
aF18.379351084848896
aa(lp350
F32.84175474311107
aF-28.632252021276056
aa(lp351
F19.34253330763625
aF26.125952066836216
aa(lp352
F48.70975648826874
aF-16.540036631545238
aa(lp353
F24.586922882328132
aF-1.8543809736386363
aa(lp354
F22.96497634468899
aF-2.806125589395664
aa(lp355
F-35.9131640872162
aF21.742496011461213
aa(lp356
F18.337198903717233
aF-7.031411703521851
aa(lp357
F49.19868835980986
aF0.3226880579007258
aa(lp358
F-44.4265837642391
aF4.425760554009084
aa(lp359
F42.92444219799177
aF0.5167753735213922
aa(lp360
F-38.079607542365814
aF-30.026948405558112
aa(lp361
F35.45173926851136
aF7.951017562287605
aa(lp362
F1.4353345557889574
aF-51.51268210175443
aa(lp363
F-10.19350141751056
aF24.499901167585687
aa(lp364
F-17.37375834282404
aF39.43046245517814
aa(lp365
F23.66096469514608
aF-5.853484257965087
aa(lp366
F32.362679888486895
aF13.687565719669118
aa(lp367
F-5.7935386807639135
aF25.79691425875037
aa(lp368
F30.871454931541532
aF-16.276084539576026
aa(lp369
F-5.471496458676754
aF27.896267738044834
aa(lp370
F58.04593691150449
aF-3.415166061284361
aa(lp371
F59.5162227485509
aF10.2745742982804
aa(lp372
F-11.616594071989157
aF37.293143586579376
aa(lp373
F5.970333633121824
aF-28.435788922579952
aa(lp374
F45.27110604423039
aF-3.347988214368661
aa(lp375
F-38.92661027837914
aF-5.229991869842137
aa(lp376
F-45.237350851342725
aF14.661677539561435
aa(lp377
F-33.035889457476465
aF-2.7882567922113974
aa(lp378
F21.792265478787744
aF12.113987855268078
aa(lp379
F45.79949879122343
aF7.253649706777755
aa(lp380
F0.5695227380273292
aF-19.62539926099186
aa(lp381
F6.8465493535492765
aF-33.10737331320176
aa(lp382
F-40.44320654575882
aF33.83078479964421
aa(lp383
F30.297860188202232
aF24.793845818699705
aa(lp384
F-35.61806674774261
aF-7.027925920171746
aa(lp385
F4.682115913559528
aF-21.27440672731205
aa(lp386
F51.36218198009185
aF-9.055276936248672
aa(lp387
F4.0349513465341715
aF-34.82378824539257
aa(lp388
F15.501175453857012
aF34.30925553440529
aa(lp389
F15.108358998239739
aF13.753234535624744
aa(lp390
F-7.317081781476077
aF31.014485668106
aa(lp391
F6.621841562689263
aF12.04203624999274
aa(lp392
F-9.768755509502732
aF28.462432063180927
aa(lp393
F-13.452200708921085
aF11.029780877855734
aa(lp394
F-37.233406206662366
aF-6.508755924904973
aa(lp395
F9.136411535909613
aF22.716274885308476
aa(lp396
F-39.79657121797909
aF-2.4627330927424333
aa(lp397
F-46.72516286981316
aF11.560911627489963
aa(lp398
F5.239154432524895
aF-23.28907094815802
aa(lp399
F-53.288679479453364
aF3.869317507976254
aa(lp400
F37.14698711302617
aF29.418082310910197
aa(lp401
F20.646653560344657
aF-5.177418362319126
aa(lp402
F-5.417050528965018
aF-16.171407287502213
aa(lp403
F23.366488413270243
aF21.937248403542306
aa(lp404
F-35.983281034214386
aF-29.024036363157048
aa(lp405
F-51.48987380087263
aF11.359098968083494
aa(lp406
F-9.692233747480412
aF-23.538609295817434
aa(lp407
F-19.57282249301648
aF-28.192449392420112
aa(lp408
F-0.7524239226221784
aF-17.849230727828616
aa(lp409
F21.17542141299379
aF-2.0697161188721402
aa(lp410
F-33.09107087536374
aF4.995271828977278
aa(lp411
F-17.440447808664125
aF16.19300430070503
aa(lp412
F59.69309260011261
aF6.297151307409777
aa(lp413
F-39.56463860764608
aF-9.886135088792665
aa(lp414
F30.277124971435974
aF-8.620137170613463
aa(lp415
F-5.06429923338828
aF22.140368934227222
aa(lp416
F15.153968051734564
aF-40.68176223312905
aa(lp417
F-6.135811548718832
aF23.94370508222408
aa(lp418
F26.63726587139706
aF-5.071013361993346
aa(lp419
F-51.260744814605125
aF9.570002434664046
aa(lp420
F-40.191505602404376
aF-11.805086742972048
aa(lp421
F61.288094263550704
aF6.2175334343453805
aa(lp422
F-42.39818897607756
aF13.084782143312157
aa(lp423
F-17.67509681940952
aF24.59290037998612
aa(lp424
F-50.13642731326068
aF11.73236431417781
aa(lp425
F-25.693189733658812
aF-18.738616129036455
aa(lp426
F-1.8522643336214168
aF38.28700305944098
aa(lp427
F3.557385229298257
aF-9.906704998830758
aa(lp428
F-34.697720539429774
aF-8.922999041998635
aa(lp429
F5.999939872200716
aF37.07083587438315
aa(lp430
F14.660975127371206
aF-35.20469978309186
aa(lp431
F35.19007561133674
aF-7.896995896239185
aa(lp432
F-11.239908599829626
aF33.52358880048456
aa(lp433
F22.77350359853251
aF-34.18116930364377
aa(lp434
F-15.191510232253831
aF-8.876832915102693
aa(lp435
F-43.95533905406762
aF17.917323430083677
aa(lp436
F-8.050513311156614
aF-30.10931272102326
aa(lp437
F-17.71773269097422
aF22.434966948173628
aa(lp438
F21.89579323362064
aF-13.691705578450001
aa(lp439
F-10.188362391112607
aF30.22938418916861
aa(lp440
F46.86735624036784
aF2.826509170991945
aa(lp441
F12.126376346486852
aF10.383340581159635
aa(lp442
F-28.856323562727248
aF-17.074795501706888
aa(lp443
F-33.62220407512448
aF-16.441898735492494
aa(lp444
F-21.281118445298187
aF6.049166437393382
aa(lp445
F7.482206077275434
aF-17.427720289676813
aa(lp446
F1.7485286694122562
aF-1.6569370821281215
aa(lp447
F35.30181730122075
aF-3.8005954206855077
aa(lp448
F-38.901921600955596
aF3.5348381433588987
aa(lp449
F-8.054812380272992
aF-13.842531471957772
aa(lp450
F0.41072860551292184
aF-17.608000646542962
aa(lp451
F18.671167751672574
aF0.16263129580410943
aa(lp452
F-50.43403697898702
aF6.800488259791509
aa(lp453
F-38.02341014927278
aF-31.526927370065618
aa(lp454
F14.71466446946531
aF19.081492058122286
aa(lp455
F21.02881772424547
aF0.7242681770597348
aa(lp456
F39.684163084373665
aF-28.64960290330454
aa(lp457
F-11.919200635413157
aF-19.6326201139162
aa(lp458
F-27.974960423449833
aF11.729365576705124
aa(lp459
F19.021737556443203
aF20.95245610642476
aa(lp460
F19.02615802459156
aF-3.588928635960397
aa(lp461
F43.022619808659
aF5.408616139224139
aa(lp462
F-23.79975212830813
aF18.447712379062324
aa(lp463
F34.97075818930363
aF4.670092222653034
aa(lp464
F29.104312265626866
aF-9.86970747366547
aa(lp465
F2.8341867028625978
aF-13.212223918755997
aa(lp466
F33.82612408575588
aF5.883002391039188
aa(lp467
F49.19557056653431
aF1.5431463198267399
aa(lp468
F36.312999456624006
aF-3.2615061791837037
aa(lp469
F5.45038842403351
aF-19.044074125582366
aa(lp470
F-0.5142799457673181
aF11.917606959407157
aa(lp471
F-24.776962884089585
aF17.036815726485617
aa(lp472
F-25.086242380117238
aF3.051684053669915
aa(lp473
F-40.12127490810673
aF-27.723165722152945
aa(lp474
F7.998334509155991
aF28.000186173860925
aa(lp475
F42.98078468896918
aF7.853503544567267
aa(lp476
F34.07284867405931
aF-40.65089780146404
aa(lp477
F32.60143781521897
aF-0.03600581582439648
aa(lp478
F1.2384170886407493
aF-12.723575589396741
aa(lp479
F-12.702376206148157
aF8.460736443442583
aa(lp480
F-7.420114837237883
aF25.236546561262294
aa(lp481
F-17.621217253768084
aF20.63483838368041
aa(lp482
F-19.14985800416687
aF10.450254238231512
aa(lp483
F-31.530420011690058
aF19.98654677120723
aa(lp484
F-45.63055177124777
aF13.634055044849895
aa(lp485
F3.7236663362713176
aF27.78623471298342
aa(lp486
F2.671028238186385
aF-18.526179659094893
aa(lp487
F15.94211755796578
aF-9.85006066662737
aa(lp488
F-18.677743245798585
aF10.329369481323068
aa(lp489
F-45.32990985325921
aF9.553503330427054
aa(lp490
F-18.14773874446829
aF-37.85625624129897
aa(lp491
F10.382650970832596
aF0.8768102343577443
aa(lp492
F17.252163900742094
aF13.292665254979076
aa(lp493
F-4.323569883470552
aF24.46480546672823
aa(lp494
F45.378708007818126
aF3.225156854441934
aa(lp495
F29.61970355943519
aF8.645388838033742
aa(lp496
F24.515299560954634
aF-41.96221305776733
aa(lp497
F-36.44812259674014
aF-32.32843370040808
aa(lp498
F-29.224957906735632
aF-24.437223414559348
aa(lp499
F2.591856954966833
aF31.416170068438923
aa(lp500
F-48.630290565260644
aF11.288275049231054
aa(lp501
F-28.525960421615768
aF14.854178764771929
aa(lp502
F54.15622499860565
aF3.627311323336864
aa(lp503
F5.529375647382952
aF-17.374966626495524
aa(lp504
F13.962864631987303
aF-2.178809508333466
aa(lp505
F56.245123879688514
aF6.722625723373178
aa(lp506
F13.690194924282046
aF-10.499214351473167
aa(lp507
F-44.269575985764824
aF6.96697486356413
aa(lp508
F1.3500083397838292
aF33.41999787664904
aa(lp509
F-12.73676312822956
aF14.998944558552923
aa(lp510
F-24.84276764778096
aF-16.83454668526688
aa(lp511
F-0.012051431973414406
aF-12.372178001429303
aa(lp512
F-20.58292215257537
aF17.597934438614516
aa(lp513
F-43.84288484906746
aF25.903306172157624
aa(lp514
F-0.8277496259413525
aF19.096551849764225
aa(lp515
F6.843689743352638
aF-14.638843160318485
aa(lp516
F17.04563033606731
aF30.253950307400544
aa(lp517
F-24.389967886888442
aF-23.148860577740518
aa(lp518
F2.620731386663871
aF11.93959057556509
aa(lp519
F-20.753901347522568
aF24.569286327564395
aa(lp520
F-7.404337599300945
aF21.223071493830478
aa(lp521
F-47.2643512498193
aF9.244118933398699
aa(lp522
F-2.9251129543221697
aF9.081687469017936
aa(lp523
F41.43483955637953
aF-0.007900078098568294
aa(lp524
F-1.6701263460869618
aF-32.2964770839912
aa(lp525
F-35.83361748003002
aF-10.956437214322289
aa(lp526
F36.861375927598615
aF-25.871219070402287
aa(lp527
F3.9646624932362324
aF-29.51968586349494
aa(lp528
F-26.80927249245281
aF-13.233319945808585
aa(lp529
F32.57692300555591
aF5.002413767577082
aa(lp530
F40.94092151717387
aF-17.417526163133346
aa(lp531
F8.649618561191065
aF-23.41727815115151
aa(lp532
F-4.8896655701676055
aF5.643319242431183
aa(lp533
F23.565017700868026
aF5.775432259016112
aa(lp534
F-11.691799685707661
aF24.03043954224069
aa(lp535
F-28.51015983004934
aF-15.147234680253485
aa(lp536
F-12.29364481487547
aF-20.449163742987107
aa(lp537
F-14.504607048332982
aF-24.720945387886797
aa(lp538
F-47.70258991428886
aF5.826097801000684
aa(lp539
F24.876678458295665
aF4.008591719995677
aa(lp540
F29.32878152291557
aF-11.918413577300042
aa(lp541
F0.20657516171812018
aF-6.26755149534755
aa(lp542
F-7.6240300579016065
aF27.842512532760338
aa(lp543
F11.694793685151813
aF-20.63387655800813
aa(lp544
F43.994105878254146
aF-5.590841380472536
aa(lp545
F-32.047415775786725
aF3.589635664786451
aa(lp546
F-33.57602798890494
aF21.632539136102928
aa(lp547
F-4.575442193360316
aF19.262779852871972
aa(lp548
F41.36869198867988
aF2.344493888811206
aa(lp549
F-49.68807649107799
aF10.157702404839632
aa(lp550
F15.829586310793802
aF3.869562138114448
aa(lp551
F39.39629550594221
aF6.931417981948046
aa(lp552
F37.8279953584784
aF-5.104840320594559
aa(lp553
F-17.8752918943455
aF-30.409590640818323
aa(lp554
F-19.495289517732814
aF-6.476617359677362
aa(lp555
F21.378510584343466
aF20.984961741755132
aa(lp556
F-15.619576436139495
aF-24.395171357707397
aa(lp557
F-26.57722677351546
aF-15.273178678616514
aa(lp558
F5.166279636928895
aF-1.2736661096549784
aa(lp559
F-14.299417651691911
aF21.004879103579633
aa(lp560
F13.63329338369479
aF-3.8660426001039654
aa(lp561
F10.916254417523433
aF4.291616412449534
aa(lp562
F53.58764762303825
aF7.137076543307278
aa(lp563
F-36.03852613562439
aF-3.470729349440135
aa(lp564
F10.935111916675579
aF-3.2557531360769127
aa(lp565
F18.824360907290856
aF8.362420721615994
aa(lp566
F-17.720311561332807
aF27.728891075756966
aa(lp567
F-19.09468638204618
aF-16.85901967589746
aa(lp568
F32.42586742697751
aF-8.331613460461801
aa(lp569
F-5.0471082293532294
aF12.591032761468107
aa(lp570
F-18.130980133017406
aF5.8783515289421135
aa(lp571
F15.337191719165508
aF1.4185952245284823
aa(lp572
F-25.356235642799067
aF15.779297181583422
aa(lp573
F-32.38490107971984
aF-8.819234267912845
aa(lp574
F-36.57359839750223
aF-14.700098750056284
aa(lp575
F31.237456136936725
aF-2.367481383123149
aa(lp576
F-11.760911405252884
aF-26.93674139254947
aa(lp577
F21.90525719094602
aF22.710417815767666
aa(lp578
F39.19503555786181
aF3.7367326793666313
aa(lp579
F12.625189920336139
aF25.049604606692668
aa(lp580
F1.2756946446710413
aF7.46018449840871
aa(lp581
F-8.323964445152402
aF26.148862135749276
aa(lp582
F47.95097549162293
aF4.094546920089088
aa(lp583
F-39.298749977954444
aF-25.704962138899234
aa(lp584
F35.03272368648661
aF-24.78351517533193
aa(lp585
F16.579680631685072
aF-12.713740160879698
aa(lp586
F33.8441937341699
aF10.869209218480826
aa(lp587
F-36.65604366061965
aF-8.531895501856193
aa(lp588
F7.246669640142121
aF-19.33954068402289
aa(lp589
F-15.413253671569763
aF-26.29776196136169
aa(lp590
F-3.7969379951515037
aF9.030781554270174
aa(lp591
F-9.706790597591068
aF-4.657337471111984
aa(lp592
F19.069266670999706
aF4.841692243734946
aa(lp593
F-3.7871718738101374
aF-20.10416248320536
aa(lp594
F-24.712083017499776
aF-14.689566355568143
aa(lp595
F-18.646295045320596
aF-0.3337981780324908
aa(lp596
F22.363033168420685
aF-0.4913532073384704
aa(lp597
F-42.89042106703761
aF11.994302661003887
aa(lp598
F-14.578064519348095
aF15.30599906089204
aa(lp599
F-26.97175033687185
aF-17.12982451345505
aa(lp600
F-2.266344511658949
aF-14.653903710535618
aa(lp601
F-4.260429387379705
aF34.031674471522265
aa(lp602
F13.781829565469081
aF-6.049162805654528
aa(lp603
F-3.1477965739465503
aF22.14181831561222
aa(lp604
F26.941603568681376
aF12.36175403315993
aa(lp605
F30.265725403509553
aF-27.981281038191327
aa(lp606
F-10.343218815727203
aF-7.560576856827554
aa(lp607
F-7.880509337667818
aF23.329599695514062
aa(lp608
F29.771064602912627
aF-17.465400230565333
aa(lp609
F-4.23599709912086
aF17.91862825935946
aa(lp610
F23.677536467668453
aF9.037586002036884
aa(lp611
F16.806844475795298
aF-24.530126172266726
aa(lp612
F9.577681979000461
aF7.88886266270494
aa(lp613
F-25.275849314262743
aF-30.208045892373896
aa(lp614
F-17.436908119220707
aF-4.054763838183018
aa(lp615
F-21.391086813433244
aF-19.90029476597601
aa(lp616
F8.292996366306928
aF-11.782758909619858
aa(lp617
F-7.799230100686528
aF3.6082169367651016
aa(lp618
F10.111027847801502
aF-18.485993349728066
aa(lp619
F6.064419021702652
aF-7.915908126253366
aa(lp620
F27.427486871481175
aF21.74138535332249
aa(lp621
F-6.8646847419782
aF-0.05117438945175174
aa(lp622
F7.683968275894871
aF-21.77048639973011
aa(lp623
F4.752963849042452
aF10.028599375835269
aa(lp624
F7.272439201533565
aF19.23388779788727
aa(lp625
F-3.701655810667097
aF-7.576902448348862
aa(lp626
F-7.459481637578249
aF-19.46787549946923
aa(lp627
F-22.84184318648837
aF-4.522802710216137
aa(lp628
F7.548316611481887
aF15.299753893457751
aa(lp629
F-11.67062966212948
aF3.1354363008358552
aa(lp630
F-14.015488107143279
aF-5.504766435218688
aa(lp631
F3.040806927694293
aF4.1242842950379925
aa(lp632
F17.498842200330664
aF8.055179335330426
aa(lp633
F-27.290294199604315
aF5.192220464086953
aa(lp634
F-25.129720334125043
aF11.397620996984786
aa(lp635
F19.19541855519057
aF2.941680392005225
aa(lp636
F-15.866381661989179
aF-19.49137354631471
aa(lp637
F-22.74367546278153
aF11.924173032552757
aa(lp638
F-2.764054507406619
aF-10.103883468070489
aa(lp639
F0.49851168223305803
aF25.83789681327476
aa(lp640
F-5.898356754248406
aF-11.621460639581885
aa(lp641
F11.120745770668108
aF-10.229557881802926
aa(lp642
F-1.0936796787169432
aF0.28055180635059945
aa(lp643
F-0.06326374410082511
aF3.7732194404007564
aa(lp644
F-31.928813080978113
aF-14.392594318473193
aa(lp645
F18.8182666170046
aF16.807320360607708
aa(lp646
F-0.49944725974753396
aF15.392460974357322
aa(lp647
F11.738038745929186
aF13.639868219838306
aa(lp648
F-10.95897627078323
aF12.313475745780154
aa(lp649
F-15.964332363814595
aF-0.0015287016128521687
aa(lp650
F7.812644898003803
aF5.860214877915316
aa(lp651
F4.754677443411544
aF14.79652021706948
aa(lp652
F-7.019013643209434
aF-3.372457587652752
aa(lp653
F-20.962579485243936
aF-10.296509875843142
aa(lp654
F-26.183933453831447
aF-3.527434177692138
aa(lp655
F-9.652531706045945
aF-10.718207384397829
aa(lp656
F15.76667082618423
aF-5.679141449575133
aa(lp657
F16.356119415372724
aF-20.874923958424677
aa(lp658
F15.463036578196673
aF11.532473317863143
aa(lp659
F-11.750124856969729
aF-15.479383066314021
aa(lp660
F-1.0929135246922757
aF-3.3256304375152896
aa(lp661
F-32.20829107909767
aF-5.397137201318879
aa(lp662
F-24.73956993009923
aF0.13775351961201715
aa(lp663
F31.283420511757964
aF-10.87499198502141
aa(lp664
F-7.1849732719661255
aF18.61320998711677
aa(lp665
F13.53617328981074
aF8.33483023306996
aa(lp666
F-21.021742040567347
aF9.584888207400361
aa(lp667
F-20.186556020325373
aF-13.009354430743098
aa(lp668
F5.441908908627483
aF-14.529553573675322
aa(lp669
F2.9490666601618862
aF19.136248347900256
aa(lp670
F8.363969240503554
aF19.03149281465756
aa(lp671
F8.503189306095368
aF24.154717571688938
aa(lp672
F19.258598736975305
aF-5.2496376233437845
aa(lp673
F-10.166969494150555
aF15.983514996012936
aa(lp674
F23.58869627015095
aF15.130999493317292
aa(lp675
F3.6572581811498437
aF-16.735755000262845
aa(lp676
F-9.560397824339715
aF7.9024611082883
aa(lp677
F10.567610553031713
aF29.784184923983513
aa(lp678
F-13.390172244152359
aF-12.375702143860948
aa(lp679
F-5.287738223542861
aF-23.4330299800253
aa(lp680
F6.963824904538269
aF2.6925993881295995
aa(lp681
F-18.416207471026112
aF3.6509502323694267
aa(lp682
F-25.109647311085634
aF14.357284649175488
aa(lp683
F1.4351377782994326
aF-21.785569853860874
aa(lp684
F-26.698721064510273
aF8.878942607288456
aa(lp685
F2.8958987218096293
aF22.900962998960328
aa(lp686
F-8.69565337362433
aF10.104266043848044
aa(lp687
F39.31622645740657
aF-15.640955539950067
aa(lp688
F-21.69014615144561
aF1.7012923143035175
aa(lp689
F-10.520450253093724
aF20.132394908227287
aa(lp690
F12.804150163352855
aF-0.07657756679789515
aa(lp691
F25.605639530852923
aF-15.274211792760346
aa(lp692
F-14.87577041505137
aF-5.040303274593161
aa(lp693
F-30.05455810233802
aF0.9904375164125885
aa(lp694
F2.051526348084272
aF-14.54956126176824
aa(lp695
F-19.390581169168268
aF21.288162152907248
aa(lp696
F19.07635675161987
aF11.5271722839433
aa(lp697
F-5.235715898469798
aF2.3571194266753452
aa(lp698
F5.804020355812762
aF-3.2481922013944002
aa(lp699
F9.393513736884243
aF-4.907579599991727
aa(lp700
F-23.323257053120734
aF13.98508290093069
aa(lp701
F-16.30554398768691
aF-14.177008570127539
aa(lp702
F13.755270118226893
aF-17.870368585858525
aasS'error'
p703
F1.9417951107025146
s.