(dp0
S'layout'
p1
(lp2
(lp3
F-41.76168953491058
aF-34.8711801023001
aa(lp4
F-49.35004788282558
aF-42.10960235810436
aa(lp5
F-6.220466943893672
aF37.912935874057126
aa(lp6
F-46.03980700980602
aF7.857586198675509
aa(lp7
F9.564821521049609
aF-30.006115041693576
aa(lp8
F-5.691399008553634
aF-49.60579168387436
aa(lp9
F-39.44739769651889
aF-1.0532009241536517
aa(lp10
F-43.56450674597144
aF-12.972278840704206
aa(lp11
F38.43962164565303
aF-20.645286242703527
aa(lp12
F43.269695098070144
aF1.065511218959417
aa(lp13
F20.54535084144918
aF9.65708717534489
aa(lp14
F-45.827428484688895
aF13.116350810092927
aa(lp15
F13.479803539823438
aF-38.24283416081553
aa(lp16
F-10.992036316797243
aF21.900448732596264
aa(lp17
F28.640852255581226
aF-27.23803599072598
aa(lp18
F-16.79806670272481
aF27.494209754297536
aa(lp19
F32.88509164376438
aF-13.575248905374014
aa(lp20
F-55.15259774178071
aF6.713217627062717
aa(lp21
F-33.766030043700404
aF20.842223434072338
aa(lp22
F29.222192761990428
aF-19.249560615216676
aa(lp23
F0.9667086304580372
aF-19.01426557124514
aa(lp24
F-31.420096173206268
aF-22.136685182214475
aa(lp25
F-16.017937873353304
aF28.39848619152422
aa(lp26
F36.642556732318816
aF-13.330133236577243
aa(lp27
F-47.36145604363372
aF19.29805308661528
aa(lp28
F33.32778033832338
aF14.043796270749842
aa(lp29
F42.293834608537374
aF-8.475897356016032
aa(lp30
F-50.72689629709031
aF15.934256720355389
aa(lp31
F42.73804498378845
aF19.443963194595085
aa(lp32
F-19.816167760622456
aF-39.14699316471358
aa(lp33
F-14.610607896178912
aF26.82318329267259
aa(lp34
F-25.429208577512888
aF25.907148007761727
aa(lp35
F-3.255690420881868
aF17.70650890964538
aa(lp36
F53.49083711068152
aF6.117368495053171
aa(lp37
F-40.8033124850164
aF-29.816189538963055
aa(lp38
F-42.59815457743224
aF-4.6170888304305
aa(lp39
F19.79851973338065
aF3.178696389503399
aa(lp40
F-36.863296565224125
aF-8.705954387766974
aa(lp41
F40.419249517387414
aF-3.765166663494916
aa(lp42
F-27.4193586719875
aF27.17438329204367
aa(lp43
F-35.07763135990586
aF20.193748707110615
aa(lp44
F28.566269653328014
aF-44.104565762661444
aa(lp45
F-43.47287729313324
aF-35.909620971916596
aa(lp46
F-6.022648227803071
aF33.42724519299399
aa(lp47
F13.257000375438965
aF25.729297984741077
aa(lp48
F51.968335070091335
aF3.6918906486570884
aa(lp49
F-9.162146280195984
aF25.032007202086774
aa(lp50
F40.6066289978206
aF12.64963097335622
aa(lp51
F47.2914523363759
aF15.636781854963314
aa(lp52
F39.69577333547914
aF8.057515592733347
aa(lp53
F19.58711124065518
aF61.424624542120554
aa(lp54
F44.307149984455855
aF2.624861457635149
aa(lp55
F50.91716545055789
aF-1.4327578049571847
aa(lp56
F-50.71276126774447
aF17.142869980901224
aa(lp57
F-44.14528145922596
aF27.12342484334162
aa(lp58
F-54.415841358507556
aF13.760190168141822
aa(lp59
F20.495048563364673
aF25.35632581018062
aa(lp60
F-26.299404324177555
aF25.09322975067879
aa(lp61
F12.876772943986618
aF-45.248918171700666
aa(lp62
F52.49090994813445
aF5.227313806733875
aa(lp63
F-45.2423289641222
aF-33.50192221894363
aa(lp64
F30.956760937097417
aF24.081526559663388
aa(lp65
F36.78877674108976
aF15.17735491563432
aa(lp66
F-47.387190297796636
aF11.65726502130093
aa(lp67
F-39.675940536477896
aF-34.87973079072168
aa(lp68
F-8.608646180651888
aF36.14530481522864
aa(lp69
F-17.312244307972286
aF20.87701930320816
aa(lp70
F59.20119868192925
aF6.161212950965581
aa(lp71
F44.55823874763905
aF-5.283299967221327
aa(lp72
F-23.251215142998753
aF-27.715345035532692
aa(lp73
F10.696277766077609
aF29.74118795557251
aa(lp74
F37.45951136521122
aF-12.610238370591343
aa(lp75
F-28.79243189693426
aF22.497738185136967
aa(lp76
F-38.26588681413801
aF-8.917810815948497
aa(lp77
F-52.42479604255153
aF2.536050894861106
aa(lp78
F-62.30752751757271
aF15.49196276301202
aa(lp79
F-26.573430504611395
aF-35.00094871594018
aa(lp80
F-28.064033067959617
aF17.265428958830626
aa(lp81
F-26.37988000024509
aF18.92053852154385
aa(lp82
F2.0461121281727412
aF-15.583790586924005
aa(lp83
F21.10290948776047
aF10.940319843062492
aa(lp84
F-52.26356922532977
aF5.8688798612034345
aa(lp85
F-28.050569322149343
aF34.0031401819434
aa(lp86
F-42.03750356472616
aF-20.562198690781212
aa(lp87
F-26.202976051683688
aF20.05291754431467
aa(lp88
F36.01004138915272
aF-17.62579517880969
aa(lp89
F37.4917681661447
aF-4.2175080036808446
aa(lp90
F-30.163485575949046
aF14.887383573470345
aa(lp91
F2.093247932964029
aF-24.02988854750395
aa(lp92
F-4.685178180986014
aF52.64836040423243
aa(lp93
F54.15147486467624
aF3.654613209064609
aa(lp94
F-40.519523177752276
aF-33.803320712959845
aa(lp95
F-40.21863194385893
aF5.51381381084383
aa(lp96
F7.936973188909923
aF42.365792809982686
aa(lp97
F16.24603395957743
aF-19.280730670258755
aa(lp98
F59.70007027737885
aF8.339193232419893
aa(lp99
F40.50899760972939
aF-16.282695334682032
aa(lp100
F-13.345525584262116
aF39.486630608692856
aa(lp101
F-28.73562924527962
aF18.855278279836394
aa(lp102
F-39.149781284715445
aF-4.838124020004203
aa(lp103
F40.92549088002798
aF-1.125698958761172
aa(lp104
F18.291305401193615
aF-46.49329019598161
aa(lp105
F16.03784365700377
aF-32.152453641660586
aa(lp106
F-48.47909096963581
aF14.458400859300612
aa(lp107
F-38.30007802757818
aF-36.93909695515451
aa(lp108
F-54.53766374881513
aF15.034072772251628
aa(lp109
F30.698902229024817
aF-48.20196374038751
aa(lp110
F-43.20867235872529
aF-31.8221990620443
aa(lp111
F-41.147838816975664
aF-27.91162782612275
aa(lp112
F-27.17291322992198
aF31.506969496724203
aa(lp113
F-46.12360930764458
aF11.804268877574378
aa(lp114
F51.08428019345861
aF5.089193614769723
aa(lp115
F-22.39285802359031
aF25.12892301913681
aa(lp116
F-45.38582475664957
aF-8.268187769465277
aa(lp117
F-23.272251631880717
aF24.20824094128385
aa(lp118
F32.25404735725229
aF-5.38222211900646
aa(lp119
F-51.113721005026285
aF10.242848702173765
aa(lp120
F-38.328464564817644
aF28.202385851869884
aa(lp121
F-34.14299352834937
aF15.531744673969198
aa(lp122
F34.373057027620526
aF-17.415590864934913
aa(lp123
F-44.81663657868408
aF-30.464657309013845
aa(lp124
F-38.918760344446696
aF-33.576514548197736
aa(lp125
F-41.482980045846176
aF-31.15513066506487
aa(lp126
F56.49216233962784
aF3.9718587292368164
aa(lp127
F8.62691875212956
aF43.265853334143166
aa(lp128
F-23.685564725474457
aF18.53158682760115
aa(lp129
F1.8354213332100364
aF-21.9595478145848
aa(lp130
F-55.32911171864641
aF18.68445397847434
aa(lp131
F26.669478518638115
aF21.49879503903453
aa(lp132
F-42.81385572695983
aF-10.017296851168593
aa(lp133
F34.11303322535477
aF-12.165684547109896
aa(lp134
F30.904512537035597
aF40.56225655848691
aa(lp135
F40.39658522875045
aF-29.41318985196832
aa(lp136
F-7.763266392478748
aF25.33303153049497
aa(lp137
F-0.3144091755436028
aF-22.834142540695282
aa(lp138
F1.8886235891597167
aF55.556224347564545
aa(lp139
F-25.106584154758913
aF29.46452958625858
aa(lp140
F21.169529389460887
aF1.0729684018664447
aa(lp141
F38.8124474662701
aF-15.022865173555855
aa(lp142
F29.158920149853856
aF16.86176723043361
aa(lp143
F22.194848507017568
aF1.7926786671235868
aa(lp144
F-48.747066775941086
aF11.019144279334661
aa(lp145
F8.253068000933453
aF-24.872145475883627
aa(lp146
F-42.526074408260186
aF14.099339826914044
aa(lp147
F35.72496285188871
aF-0.7820389279905493
aa(lp148
F33.52443190538656
aF1.1056280482126373
aa(lp149
F37.32591737774638
aF-17.88629444648661
aa(lp150
F-27.128532275272295
aF20.446349117515307
aa(lp151
F-40.480978332070634
aF-7.816610660229654
aa(lp152
F-38.324037395699634
aF6.645015968715783
aa(lp153
F57.018757854159006
aF19.01129415785023
aa(lp154
F-3.9516491898401704
aF-44.01729532258863
aa(lp155
F-44.3333147191052
aF-13.721702801559251
aa(lp156
F27.8021450033095
aF12.123872349304612
aa(lp157
F-38.210131912797785
aF-5.894830762675782
aa(lp158
F-30.488954821257686
aF16.575496738343677
aa(lp159
F-40.8062013554008
aF-32.46550696214155
aa(lp160
F19.90448130914948
aF33.91237595759256
aa(lp161
F0.4409103076407162
aF-26.757526370120974
aa(lp162
F-8.206377307608417
aF30.347971781904356
aa(lp163
F16.979696256929827
aF7.4467577149330015
aa(lp164
F21.07093749519134
aF6.375155720332099
aa(lp165
F-8.544304234382134
aF-27.19501744096689
aa(lp166
F48.243995012805364
aF-3.814084162019365
aa(lp167
F-40.689998147761344
aF-36.01407210135446
aa(lp168
F54.1695486007037
aF10.656613105093466
aa(lp169
F12.995673121620305
aF35.87336715712525
aa(lp170
F-30.08817355286236
aF27.649423980893488
aa(lp171
F-38.84214574560167
aF-7.843842478554169
aa(lp172
F35.37646663624147
aF-16.26564077868222
aa(lp173
F21.82877088061123
aF-17.164000814382533
aa(lp174
F-48.15367216020839
aF6.03629471203893
aa(lp175
F24.786620901667785
aF-10.690925855518833
aa(lp176
F-30.69641464174939
aF19.507855612107928
aa(lp177
F0.005980573294390369
aF-31.925876807696007
aa(lp178
F-27.561760288969992
aF23.616203988860565
aa(lp179
F-29.952349414994305
aF22.203908743403105
aa(lp180
F-19.80624926281718
aF36.95727010180903
aa(lp181
F-12.135776303762988
aF46.47528670957246
aa(lp182
F29.870545009428106
aF33.617085226555844
aa(lp183
F-34.36301053463497
aF9.846662706687159
aa(lp184
F11.464394622608541
aF-20.21675132457104
aa(lp185
F5.034134998446338
aF-29.680100326577772
aa(lp186
F35.389288117066435
aF-14.680242115301624
aa(lp187
F-44.870049166765355
aF-14.370999472734832
aa(lp188
F-53.71246855935279
aF14.304302491480128
aa(lp189
F29.480750317784707
aF-24.527162653860202
aa(lp190
F-20.112986665777093
aF-36.47515033210071
aa(lp191
F-5.278501951054167
aF-0.04175749281492709
aa(lp192
F-50.756111948724545
aF2.9864187006523655
aa(lp193
F19.488965204791956
aF2.075987777577197
aa(lp194
F-40.8325163634572
aF-5.482219919443531
aa(lp195
F-44.21090876966912
aF-19.86603815516781
aa(lp196
F0.11888597205699099
aF21.87783232083826
aa(lp197
F14.189897735419764
aF8.496280235544802
aa(lp198
F-47.35878818585515
aF20.174557407854277
aa(lp199
F-42.67409463982747
aF-7.111688651350535
aa(lp200
F3.6027007080789866
aF-29.47795229971659
aa(lp201
F22.46639856260517
aF4.043985303596972
aa(lp202
F2.3501922688460595
aF40.25488923693243
aa(lp203
F-0.3370592551159866
aF-17.058846348243705
aa(lp204
F20.928500506137162
aF1.9393812977777078
aa(lp205
F-22.60054551659087
aF26.11370721721871
aa(lp206
F19.94302131747431
aF-30.355789668851735
aa(lp207
F36.76402029647614
aF10.827712011631263
aa(lp208
F-35.97166153922384
aF5.361230397441254
aa(lp209
F-38.06000476394732
aF-34.893612231734586
aa(lp210
F4.7616505415533865
aF32.60338497985663
aa(lp211
F18.427163777247095
aF9.086049706754135
aa(lp212
F-31.460666606092552
aF-5.672539106415786
aa(lp213
F11.909824429672973
aF-26.7557493388647
aa(lp214
F24.854540234980014
aF3.9481630093171765
aa(lp215
F-21.037559566490902
aF17.637674683513342
aa(lp216
F39.58201077916188
aF-14.19438876270938
aa(lp217
F30.112150268407763
aF-38.57509165802863
aa(lp218
F42.509680335560134
aF24.502057206503096
aa(lp219
F27.21072184563704
aF-33.35858718216565
aa(lp220
F20.356544637824054
aF7.384381087125279
aa(lp221
F33.92516651321606
aF3.082954573127988
aa(lp222
F24.19500806519065
aF2.803427908961223
aa(lp223
F-47.19652965284689
aF12.919531543761352
aa(lp224
F-41.80846488133398
aF-33.5746370869987
aa(lp225
F37.42770975611575
aF24.019419850774426
aa(lp226
F-40.907693018700044
aF-9.900184928645547
aa(lp227
F60.425330699701895
aF5.2633971484204425
aa(lp228
F20.28046522692323
aF-10.002714853008575
aa(lp229
F22.35945248413278
aF-9.922234530974563
aa(lp230
F38.30106016578604
aF-0.3565388994595692
aa(lp231
F-40.32454718638089
aF-31.283634853542374
aa(lp232
F-28.852686059806878
aF-43.254304849027186
aa(lp233
F14.610780983123732
aF34.05931725444516
aa(lp234
F-7.340629138738034
aF34.451247602746285
aa(lp235
F-14.532354327131467
aF-38.28624956860451
aa(lp236
F55.67742180718341
aF8.157116404400822
aa(lp237
F18.079624315215575
aF12.708274623330864
aa(lp238
F46.92176709653624
aF-1.5395637074844866
aa(lp239
F-35.543945413142936
aF-8.755960956638162
aa(lp240
F-30.043417719879734
aF-22.941783016139972
aa(lp241
F21.438339173576818
aF-9.287084391124194
aa(lp242
F-23.87761800601666
aF-38.755401443469886
aa(lp243
F-14.445780257822372
aF39.14742205237241
aa(lp244
F-27.49005752549518
aF37.77984118856366
aa(lp245
F33.756341622582056
aF-0.5453969830730205
aa(lp246
F-15.773558301929194
aF-28.247974734846604
aa(lp247
F-9.944586136372086
aF32.58691391627101
aa(lp248
F-35.28078919082807
aF-13.732320974760023
aa(lp249
F-39.31119394675522
aF-14.571144539075407
aa(lp250
F-55.36125578049528
aF19.122070234707618
aa(lp251
F-32.978012447148494
aF26.701034259951413
aa(lp252
F15.93708531175224
aF-29.320372135198717
aa(lp253
F-8.88083451002911
aF15.606393425473382
aa(lp254
F25.665606984050026
aF5.807833648287803
aa(lp255
F-2.171511208856937
aF-39.05709503845345
aa(lp256
F-29.290783563508267
aF20.80725199750386
aa(lp257
F27.13448276766353
aF-2.602656202338593
aa(lp258
F40.74759451245882
aF-9.13558042508212
aa(lp259
F-21.961793526863662
aF31.761664343431192
aa(lp260
F2.3758366929517187
aF-17.786354898389412
aa(lp261
F20.123190697587965
aF-32.400573056106445
aa(lp262
F-1.5553411461606284
aF-17.26309653232087
aa(lp263
F33.87955950746975
aF-14.179295730738263
aa(lp264
F58.6175084249947
aF9.276301109242315
aa(lp265
F-2.4028583019510035
aF21.521422370147064
aa(lp266
F-28.694529693061337
aF20.811047567498704
aa(lp267
F-50.65206741623895
aF12.235132773698611
aa(lp268
F29.834928997169257
aF19.01509217080158
aa(lp269
F32.30637458988941
aF-10.552108408177874
aa(lp270
F0.7724029674047519
aF-15.28120150944818
aa(lp271
F36.963524344844195
aF18.997948085233766
aa(lp272
F51.55529543984133
aF9.76020753273962
aa(lp273
F26.595978890658337
aF15.701961021563983
aa(lp274
F-42.624673817450066
aF-30.24576447925953
aa(lp275
F20.65269851051896
aF35.12806716857622
aa(lp276
F41.54779552629683
aF3.636001622251085
aa(lp277
F7.868853890302483
aF-14.02618963217287
aa(lp278
F33.52728854708434
aF22.78747833051663
aa(lp279
F20.324644919874256
aF9.033806582343423
aa(lp280
F26.03745301251811
aF-4.658883434618129
aa(lp281
F4.253970317200605
aF-37.03529988958267
aa(lp282
F16.78453421263183
aF-41.28940663368065
aa(lp283
F31.802744260802175
aF-18.237824579386128
aa(lp284
F-43.18164027098094
aF-33.446096801566505
aa(lp285
F-36.08706988496297
aF-3.0435139684468386
aa(lp286
F8.851237972628438
aF-22.79972673657982
aa(lp287
F9.02640263928527
aF-25.15244259697523
aa(lp288
F6.640187155165112
aF-49.58437733681803
aa(lp289
F-29.211953873089037
aF24.84114042252571
aa(lp290
F33.941779363647036
aF19.888655877301275
aa(lp291
F24.258033417453344
aF-3.3548985626307712
aa(lp292
F-41.923587103470474
aF-32.28867562542451
aa(lp293
F-48.81171289067726
aF12.62198185658804
aa(lp294
F-49.20005308412766
aF9.476032487230926
aa(lp295
F16.846540992218454
aF20.118292480263417
aa(lp296
F-22.939578709036393
aF33.86777573862025
aa(lp297
F-23.466096113354777
aF22.03808344805432
aa(lp298
F46.53713736951834
aF6.9805224634185565
aa(lp299
F-40.87298238173147
aF-3.009123318365317
aa(lp300
F17.96690529190637
aF-23.201611144190405
aa(lp301
F-38.52873801478091
aF-1.3371443076652232
aa(lp302
F58.26331393676419
aF3.7563578013983894
aa(lp303
F15.355496058387645
aF30.71289729476173
aa(lp304
F-36.363543910110934
aF-4.831678838287465
aa(lp305
F19.17475808072486
aF-18.01981420426435
aa(lp306
F-32.430038072558574
aF24.551523975061883
aa(lp307
F50.160803690640016
aF3.717189069722675
aa(lp308
F-4.349339524519806
aF-11.789372569407814
aa(lp309
F16.13069615776132
aF-30.50276794128096
aa(lp310
F51.742011641913685
aF7.01520151752115
aa(lp311
F21.660404138888893
aF-23.477250142622857
aa(lp312
F34.03022782598008
aF-9.961113844572314
aa(lp313
F17.520236995386796
aF-23.36311482113587
aa(lp314
F53.06225694432023
aF2.2677052427698956
aa(lp315
F-34.63898217325863
aF21.429871075569583
aa(lp316
F-29.932597183577048
aF-25.843032800261092
aa(lp317
F2.188732061665205
aF38.18571604950513
aa(lp318
F46.18125084637583
aF8.574792186920464
aa(lp319
F-36.83705642584308
aF-33.72021934157972
aa(lp320
F48.44424892115595
aF8.676180119581389
aa(lp321
F28.759950403636765
aF-25.601332254278333
aa(lp322
F23.06607113545259
aF-12.511030108721346
aa(lp323
F40.00466058728337
aF2.104457882174206
aa(lp324
F35.3772710967453
aF-11.025436469814055
aa(lp325
F20.43996763996318
aF24.41415580565801
aa(lp326
F17.93214848641405
aF-30.09568639648212
aa(lp327
F25.590540356043302
aF8.13482530798751
aa(lp328
F22.52776332762366
aF6.7377443428948265
aa(lp329
F-61.54659826587047
aF18.509618384215397
aa(lp330
F-33.52533160470098
aF-0.888161681660697
aa(lp331
F4.330331872985353
aF-22.48158155673484
aa(lp332
F22.936723453825575
aF9.370224374006835
aa(lp333
F-36.868157518693565
aF-6.348489864485045
aa(lp334
F20.588753487402776
aF4.723778692616697
aa(lp335
F2.7544550907662924
aF-20.299231229907882
aa(lp336
F31.634097430186348
aF-9.136148928046332
aa(lp337
F-4.668073530670838
aF32.147969372421414
aa(lp338
F25.447952975915317
aF21.902188614560398
aa(lp339
F1.7343005108270202
aF35.32913211657247
aa(lp340
F-8.05688313296451
aF41.846791015622685
aa(lp341
F-55.112196400789855
aF10.544557747509398
aa(lp342
F-5.236216230193907
aF35.216798957595934
aa(lp343
F-50.57966959378442
aF7.698588487926501
aa(lp344
F50.38697915559578
aF-24.2530158112649
aa(lp345
F-33.81730588940805
aF15.396393172711782
aa(lp346
F-3.15528695526045
aF0.6969837732926297
aa(lp347
F-25.375599810673062
aF23.63345761728484
aa(lp348
F-1.7342096634618924
aF-11.750221281265102
aa(lp349
F-27.033204074585807
aF21.43380753224431
aa(lp350
F33.03370121047757
aF-25.35794378888635
aa(lp351
F14.861664804973115
aF22.225591321558117
aa(lp352
F45.74751750304367
aF-18.758190874073648
aa(lp353
F21.829539235386694
aF8.414518787038398
aa(lp354
F20.03722722443164
aF6.096188816486114
aa(lp355
F-34.795204211235564
aF25.206454860305698
aa(lp356
F18.064855517121725
aF4.5181578617611855
aa(lp357
F43.81455490309204
aF-2.4899466183086094
aa(lp358
F-44.754472527336574
aF2.9407067234131676
aa(lp359
F38.47357856054003
aF1.4036653729472222
aa(lp360
F-39.181698315885555
aF-31.83757163128514
aa(lp361
F35.12495410141249
aF-2.591344305769311
aa(lp362
F6.5462926827913765
aF-49.83871407792348
aa(lp363
F-7.378662616396136
aF21.006753208503707
aa(lp364
F-15.313299547551457
aF38.9927663371504
aa(lp365
F22.88808624628248
aF5.113302260821659
aa(lp366
F29.793767834086267
aF9.406660595969079
aa(lp367
F-5.953383719623291
aF17.43162269450217
aa(lp368
F31.561676171263766
aF-19.020077391899594
aa(lp369
F-1.4046462739964016
aF17.82601619912341
aa(lp370
F51.55270519594444
aF0.1315679690434999
aa(lp371
F54.34291294748012
aF8.408577089158591
aa(lp372
F-4.3735450507108355
aF24.861819820519255
aa(lp373
F4.0405481748926855
aF-23.622874763348854
aa(lp374
F33.74122380236019
aF-6.522444888439027
aa(lp375
F-39.531035917494165
aF-6.627329267068508
aa(lp376
F-46.54228132785209
aF15.75678209972577
aa(lp377
F-33.24534928678988
aF-7.331486120446052
aa(lp378
F15.177319868602376
aF12.997151904167003
aa(lp379
F43.84309467427109
aF3.6092248963340503
aa(lp380
F-1.0254203303937366
aF-15.384896755437703
aa(lp381
F25.82706350399287
aF-21.82600801364832
aa(lp382
F-34.070111666170554
aF34.58548843920914
aa(lp383
F34.62245993999925
aF4.180267453185168
aa(lp384
F-38.105544426138856
aF-6.706444353546717
aa(lp385
F0.9819789963745298
aF-17.182378786412777
aa(lp386
F45.318057260860364
aF-13.750862630547026
aa(lp387
F20.48079749309485
aF-24.70278279959117
aa(lp388
F26.283758589470175
aF29.82211681552632
aa(lp389
F17.64727448856482
aF11.82119390675893
aa(lp390
F-8.20358829504076
aF19.438981949550204
aa(lp391
F3.7797586125330804
aF-5.359360541789318
aa(lp392
F-5.073172584737895
aF20.8689994748076
aa(lp393
F-12.110937659703866
aF10.56934673929803
aa(lp394
F-37.683114112404944
aF-7.867135692110831
aa(lp395
F12.036000054813035
aF18.0533874749946
aa(lp396
F-37.91111612669789
aF-3.533941309771245
aa(lp397
F-44.40431432583842
aF13.141241606752674
aa(lp398
F-0.45934309587626604
aF-18.472958121366528
aa(lp399
F-51.118421590370154
aF3.52265790028093
aa(lp400
F34.96653976705288
aF31.77699848398623
aa(lp401
F2.716217915278117
aF-16.467705667691995
aa(lp402
F-8.967260940012794
aF-18.76447522010102
aa(lp403
F21.696150749638942
aF24.49653362162637
aa(lp404
F-37.2363556974781
aF-29.325691780588713
aa(lp405
F-47.53732047676469
aF10.419888652090957
aa(lp406
F-9.864913345935594
aF-15.18167681456127
aa(lp407
F-17.68778284254633
aF-25.02925217664958
aa(lp408
F-1.9412529361710367
aF-20.972408619445478
aa(lp409
F21.306374115668362
aF7.303169712416737
aa(lp410
F-37.7678452243893
aF5.274845107248254
aa(lp411
F-17.90801107151112
aF20.37238102182828
aa(lp412
F56.83762654286265
aF5.659756263516855
aa(lp413
F-39.985737886433334
aF-10.094814071194314
aa(lp414
F29.67734104938616
aF-13.609719802741159
aa(lp415
F-1.5692272526580475
aF16.31543746080279
aa(lp416
F7.303060815487227
aF-40.56600554471289
aa(lp417
F-5.157737233630408
aF16.275335599992975
aa(lp418
F27.234115255490227
aF5.6245245089554805
aa(lp419
F-47.895412124517705
aF8.554875105851083
aa(lp420
F-40.455858121232005
aF-11.474438236370037
aa(lp421
F57.3338695390159
aF6.722224678598725
aa(lp422
F-40.72928547502257
aF14.812409474155332
aa(lp423
F-17.941056610524235
aF29.296378795749906
aa(lp424
F-46.46384854162187
aF10.903803513171662
aa(lp425
F-28.60748019546856
aF-22.73449593430585
aa(lp426
F-5.768606657731969
aF28.835563205973003
aa(lp427
F-1.2023622643546263
aF-12.449143640111489
aa(lp428
F-35.83672250057281
aF-10.182782870236771
aa(lp429
F-2.809649589228252
aF39.86864233688596
aa(lp430
F8.775620864281647
aF-35.52170039109922
aa(lp431
F35.378246677344315
aF-12.348600575247918
aa(lp432
F-18.634460791236176
aF21.049430474133754
aa(lp433
F18.472814464583365
aF-31.39322274065382
aa(lp434
F-19.042916069048196
aF-5.871561051278206
aa(lp435
F-43.3460423891038
aF16.548199502373826
aa(lp436
F-4.467093225800527
aF-26.512227581856422
aa(lp437
F-16.33249439625086
aF26.265635060292126
aa(lp438
F31.883735994831632
aF-15.402466242478388
aa(lp439
F-5.2099194395833335
aF22.042922318793273
aa(lp440
F42.30304925395032
aF1.8789411451889544
aa(lp441
F20.664886065949265
aF12.442905022673827
aa(lp442
F-31.373187234252303
aF-20.64134109116181
aa(lp443
F-36.70701990317068
aF-18.527306874955183
aa(lp444
F-16.10957940240389
aF8.580250550901551
aa(lp445
F5.04765643060219
aF-15.575393704306334
aa(lp446
F-0.9714289860314838
aF-9.13253428079112
aa(lp447
F37.651877823377085
aF-9.109631635373573
aa(lp448
F-39.895658870025066
aF3.7173930090176763
aa(lp449
F9.775594079289874
aF-3.1221773125957077
aa(lp450
F-1.3064436892261606
aF-20.387570740667087
aa(lp451
F18.03921523623492
aF8.455235585571474
aa(lp452
F-46.20976363010874
aF6.851181878594292
aa(lp453
F-39.795461719352275
aF-32.80357003835862
aa(lp454
F26.66324750737179
aF13.221499271454155
aa(lp455
F23.701772503503303
aF11.851913436261507
aa(lp456
F32.561839951893695
aF-32.017665648839326
aa(lp457
F-16.634166778114313
aF-15.879833944308507
aa(lp458
F-43.84499336848068
aF11.530388270689427
aa(lp459
F19.005019451571698
aF27.121836241483788
aa(lp460
F18.731103897469083
aF5.051005940821255
aa(lp461
F41.244362423981975
aF4.271534581198211
aa(lp462
F-26.310103082575452
aF22.43518581903236
aa(lp463
F32.221433028949676
aF-2.4744948314279425
aa(lp464
F29.954360798941003
aF-12.22358292122211
aa(lp465
F-3.450372127900809
aF-15.03709614215983
aa(lp466
F32.62003190074814
aF-1.471429616827327
aa(lp467
F43.65262033980957
aF-1.7036157618594694
aa(lp468
F38.30183370388332
aF-9.101489583950334
aa(lp469
F1.5528034482728859
aF-16.243806716647974
aa(lp470
F-12.900901452629224
aF12.48458604789439
aa(lp471
F-25.99901798466795
aF21.238141472030215
aa(lp472
F-8.420476647342468
aF11.054633944239926
aa(lp473
F-42.55739561292237
aF-28.26476637588344
aa(lp474
F9.02119765409623
aF21.374735866515422
aa(lp475
F42.43713338178928
aF5.886575640590284
aa(lp476
F32.70739804599097
aF-39.054962344956905
aa(lp477
F28.363566809198424
aF11.445745517564813
aa(lp478
F-4.401754250049838
aF-14.423897796090547
aa(lp479
F-13.341084559442324
aF8.701941385835969
aa(lp480
F-4.027593665857333
aF15.358954161598115
aa(lp481
F-14.562839680587258
aF27.88097754440776
aa(lp482
F-24.4114080544767
aF16.48213518915208
aa(lp483
F-32.07101159998898
aF18.82137047556451
aa(lp484
F-45.97600149251963
aF16.008085965730473
aa(lp485
F6.6339776972669835
aF34.079621027508104
aa(lp486
F0.22914874679709704
aF-14.59799722181178
aa(lp487
F33.120247613245276
aF-4.939937689133186
aa(lp488
F-23.27286117041307
aF15.60035618327885
aa(lp489
F-42.82985897023356
aF8.749266108611318
aa(lp490
F-23.751624906835065
aF-31.65862203697278
aa(lp491
F26.91253518593612
aF-8.71293438828094
aa(lp492
F16.925774966029795
aF13.651329169185415
aa(lp493
F-3.0427495459561853
aF19.300959448641787
aa(lp494
F41.28966020857296
aF1.101815015459975
aa(lp495
F33.39635843345722
aF7.253173354318214
aa(lp496
F23.46718240304003
aF-40.737085148959
aa(lp497
F-38.03337484373197
aF-32.52164189118995
aa(lp498
F-24.35029682789769
aF-21.10415479626275
aa(lp499
F0.24042395928251276
aF34.00390945880261
aa(lp500
F-45.61254400491266
aF9.957742183496048
aa(lp501
F-45.20256866577386
aF11.049186450542098
aa(lp502
F44.82158486161767
aF0.4886710806143172
aa(lp503
F2.7361142864796055
aF-13.701294930245243
aa(lp504
F30.11635027777921
aF-3.689246465083698
aa(lp505
F53.912845959974945
aF4.995140513724409
aa(lp506
F17.146677021458316
aF-9.22975776981245
aa(lp507
F-39.92802536016372
aF10.070157055862216
aa(lp508
F-0.2719511233850678
aF36.04570990685572
aa(lp509
F-33.7019194207247
aF-5.5273193716351665
aa(lp510
F-27.34622251830349
aF-21.98054871931428
aa(lp511
F-4.2217154444709895
aF-13.568585870862787
aa(lp512
F-21.570040643120596
aF22.378768343215654
aa(lp513
F-40.71391641386781
aF19.161505041394342
aa(lp514
F-3.438739633771292
aF7.528562322713395
aa(lp515
F10.681252023258994
aF-15.244190546387328
aa(lp516
F11.36014423484642
aF28.28695964455923
aa(lp517
F-36.09571253433001
aF-31.780568531449056
aa(lp518
F13.098582934930285
aF3.5611449840757103
aa(lp519
F-18.759594974620743
aF26.799108262435585
aa(lp520
F-4.616084421831664
aF13.218046247674545
aa(lp521
F-44.22921150322119
aF9.202443341225779
aa(lp522
F-4.453619225698256
aF10.187816780644322
aa(lp523
F38.43324090164479
aF0.4153179729198441
aa(lp524
F-7.766039671380505
aF-33.22254793613043
aa(lp525
F-35.79377530216086
aF-12.511692884594797
aa(lp526
F39.308419194674606
aF-26.14661317941732
aa(lp527
F-4.70626132149664
aF-28.80584985951786
aa(lp528
F-29.711459818243878
aF-20.137044795493765
aa(lp529
F31.97571503898114
aF-0.7329075586773863
aa(lp530
F48.320224571049934
aF-6.6342607728486
aa(lp531
F4.36464260213553
aF-20.663849307419973
aa(lp532
F-26.612464244802325
aF5.35282107733344
aa(lp533
F23.812323879354075
aF6.009681431916125
aa(lp534
F-8.097822836441718
aF21.953558859942078
aa(lp535
F-30.937028174145443
aF-19.193711536859798
aa(lp536
F-16.986149648654592
aF-15.967327992050429
aa(lp537
F-10.543675598790712
aF-23.976048396075647
aa(lp538
F-43.777531252533166
aF6.8870577756119085
aa(lp539
F24.465845994061212
aF7.334936408776156
aa(lp540
F31.415437266828988
aF-12.30478746684415
aa(lp541
F18.500452195871425
aF-4.421982742422836
aa(lp542
F-4.873385838531802
aF18.785323456154412
aa(lp543
F9.485330283619767
aF-17.524308053425063
aa(lp544
F35.44504024555518
aF-3.9092232842478594
aa(lp545
F-37.25144285241675
aF6.4173736750189025
aa(lp546
F-32.124148906567214
aF25.519599206932416
aa(lp547
F-2.4262514018252106
aF12.95669330798693
aa(lp548
F37.983095236799315
aF2.96165556370169
aa(lp549
F-46.69720509675845
aF9.618866204839069
aa(lp550
F0.6632847956730988
aF-12.615667949794894
aa(lp551
F38.777403448604076
aF5.883931726390667
aa(lp552
F38.039312251143706
aF-11.074237576978257
aa(lp553
F-16.358913686779765
aF-26.882193929395815
aa(lp554
F-14.96163538594488
aF5.29450245700316
aa(lp555
F19.00118825929928
aF25.169413269447233
aa(lp556
F-10.041172003204272
aF-24.32966213479722
aa(lp557
F-28.649638566844686
aF-21.0782489050926
aa(lp558
F14.26182166151609
aF-15.71591974594729
aa(lp559
F-25.58663282054686
aF8.947812994314456
aa(lp560
F28.8314039776477
aF-3.5349092855819624
aa(lp561
F3.3727783503549653
aF-9.212567256828669
aa(lp562
F52.82751538177769
aF3.9834526183684114
aa(lp563
F-37.168279311624175
aF-4.864101528635074
aa(lp564
F25.346035321736423
aF-2.0330350494105986
aa(lp565
F24.758015778181885
aF17.94677388817307
aa(lp566
F-18.0425143163273
aF33.40280148613236
aa(lp567
F-20.27814029350714
aF-12.398528659411495
aa(lp568
F31.15992303973356
aF-14.397132592549093
aa(lp569
F14.176655035919246
aF7.533775955938825
aa(lp570
F-34.308702892812036
aF-0.818580092988951
aa(lp571
F7.34915312303529
aF4.088354410447707
aa(lp572
F-25.439853850473426
aF20.501941150368474
aa(lp573
F-33.926015826155044
aF-9.042106696384447
aa(lp574
F-37.99995081578624
aF-11.959743124016798
aa(lp575
F34.59015809371562
aF-8.879910867450599
aa(lp576
F-15.142347853831179
aF-19.84692453129467
aa(lp577
F20.631316958598614
aF26.17913265431374
aa(lp578
F52.670303042905914
aF8.567293831113346
aa(lp579
F10.001998196522592
aF24.388803322706384
aa(lp580
F-0.32844388044319006
aF4.496766017895587
aa(lp581
F-3.33640759991796
aF15.94864801934819
aa(lp582
F42.44914020671835
aF0.14878644151134418
aa(lp583
F-39.33607696606241
aF-30.521106135717293
aa(lp584
F37.78158743101348
aF-25.75884203344157
aa(lp585
F26.871087254848877
aF-9.240124789937077
aa(lp586
F49.33086597107818
aF6.066855821678251
aa(lp587
F-37.56154252298459
aF-10.095953382505243
aa(lp588
F12.243871493916828
aF-17.70017109985887
aa(lp589
F-11.082072174924688
aF-25.40064610478737
aa(lp590
F-4.687245242007905
aF9.647838195466703
aa(lp591
F-8.378000370749227
aF0.7844352295275204
aa(lp592
F13.972563734904783
aF4.857247872922497
aa(lp593
F4.435937839599593
aF-26.453603759144425
aa(lp594
F-28.27968061570984
aF-19.402248507755754
aa(lp595
F-39.160722142597436
aF-28.80988179542476
aa(lp596
F24.419608060040478
aF10.230726155623508
aa(lp597
F-41.509782426051835
aF14.71405632243307
aa(lp598
F-34.75453501050858
aF-4.9641163194694355
aa(lp599
F-29.942824372741836
aF-21.470999411751166
aa(lp600
F4.97315595993901
aF-2.7617909390930597
aa(lp601
F-13.545524562752647
aF34.88053214109046
aa(lp602
F26.893783581888467
aF-5.894201421012048
aa(lp603
F0.07725768712170852
aF18.416003929415833
aa(lp604
F32.47687674532203
aF17.38578927486094
aa(lp605
F30.659230933421178
aF-24.833012785500404
aa(lp606
F-11.299246430717654
aF8.173593013269207
aa(lp607
F-2.572195192542448
aF20.746014020755634
aa(lp608
F24.794073445559615
aF-13.987437976289131
aa(lp609
F-2.383755418831553
aF13.841576600439438
aa(lp610
F31.21470083925188
aF1.9043428706079353
aa(lp611
F26.198684382811894
aF-20.1119383272501
aa(lp612
F34.379441685537586
aF-16.19041312385828
aa(lp613
F-22.986058709040222
aF-27.37826117902464
aa(lp614
F-12.505213566652092
aF-0.6573011423739721
aa(lp615
F-26.277395900476975
aF-9.746550187464983
aa(lp616
F8.404417645936556
aF-18.878891319576248
aa(lp617
F18.7587024807979
aF-7.434569574692863
aa(lp618
F6.468848080861182
aF-21.01421249228919
aa(lp619
F9.92319819285762
aF-11.087884446199121
aa(lp620
F27.000901549796588
aF26.668297286852603
aa(lp621
F-20.706519774075716
aF12.657589232863407
aa(lp622
F3.4598316646688847
aF-18.807554721492366
aa(lp623
F-7.352043128308739
aF19.22409803287362
aa(lp624
F3.938830534141003
aF19.698236113768445
aa(lp625
F1.4487599455603708
aF-7.951076404756315
aa(lp626
F-15.294570999878792
aF-25.66790712019169
aa(lp627
F-29.40365362063155
aF-18.536780538285615
aa(lp628
F-3.5427856310409234
aF24.536243072063282
aa(lp629
F-32.25033366861999
aF-9.187212207466699
aa(lp630
F-15.121832305516646
aF0.8054878778751007
aa(lp631
F-0.04269431579239553
aF12.881872378689094
aa(lp632
F23.927010614821867
aF17.695031084605592
aa(lp633
F-37.55012256362412
aF7.91161048797788
aa(lp634
F-27.613600897470594
aF15.040060652297038
aa(lp635
F15.875935237093486
aF4.414985672604601
aa(lp636
F-16.449835908523635
aF-19.74073494766761
aa(lp637
F-26.15873788320676
aF17.456584961394142
aa(lp638
F-3.849505923663681
aF-10.34349676735324
aa(lp639
F-2.4953501027491054
aF27.84123459005169
aa(lp640
F-9.944862090301992
aF-1.7035647925172122
aa(lp641
F25.987200839141874
aF-17.125280558313776
aa(lp642
F3.635660476664322
aF3.4994417917867655
aa(lp643
F-5.099735210767117
aF3.733851293460534
aa(lp644
F-37.767634117835755
aF-30.94872811861666
aa(lp645
F31.75474083937907
aF12.062979935029428
aa(lp646
F-8.39175427804901
aF5.38222182101893
aa(lp647
F18.82642278528159
aF17.287377621498234
aa(lp648
F-39.90742471319351
aF12.520396780329975
aa(lp649
F-22.204180524199234
aF18.99441074695268
aa(lp650
F-11.518652597515771
aF4.481099910042111
aa(lp651
F6.002867294642072
aF17.343493600192886
aa(lp652
F-20.088889424739
aF2.5522926157047583
aa(lp653
F-24.92475842774242
aF-18.543428591453907
aa(lp654
F-42.42822642425971
aF10.621480859103107
aa(lp655
F5.115084507089064
aF1.9121921077534316
aa(lp656
F24.344380419477815
aF-6.152955141644975
aa(lp657
F20.99298266719078
aF-20.812613383354602
aa(lp658
F18.391582484021125
aF13.775338557941364
aa(lp659
F-9.45452575552074
aF-12.155120361190525
aa(lp660
F10.915698186295636
aF-0.910581187831402
aa(lp661
F-36.02036613897338
aF-7.563507184991448
aa(lp662
F-35.97624510276493
aF7.237710979760945
aa(lp663
F32.817284065349206
aF-11.738350592201467
aa(lp664
F-8.694056132607797
aF14.052675548415044
aa(lp665
F8.339265078269664
aF17.917672444269154
aa(lp666
F-25.153618561033824
aF15.460187395625208
aa(lp667
F-22.425486046787626
aF-8.257505673856624
aa(lp668
F10.734066218030536
aF-15.29216930373187
aa(lp669
F-1.5668781578839426
aF24.76899161573298
aa(lp670
F4.337049149960116
aF20.29876016268616
aa(lp671
F11.190601914611058
aF18.733201352219687
aa(lp672
F1.6031580407779358
aF-14.320276402850487
aa(lp673
F-24.87894114632516
aF21.948308630043332
aa(lp674
F34.49546371087415
aF9.332273999292818
aa(lp675
F4.020656148604871
aF-17.345333552610633
aa(lp676
F-22.559202019759343
aF20.61391125947813
aa(lp677
F-0.6540618315688213
aF29.754707348527358
aa(lp678
F-5.437126852311587
aF-2.4731380644598824
aa(lp679
F-7.327233116549334
aF-21.41257349016801
aa(lp680
F7.518862735244633
aF-14.256253102256252
aa(lp681
F-25.110200717690223
aF19.02895822175375
aa(lp682
F-27.52937678676998
aF19.27124618304837
aa(lp683
F-2.330357393161035
aF-16.880744778175917
aa(lp684
F-27.919426516012585
aF10.935376461097869
aa(lp685
F3.27877148656725
aF28.59538079369458
aa(lp686
F-35.680468182482976
aF-6.287926491349986
aa(lp687
F46.24246285876137
aF-7.856267003732657
aa(lp688
F-20.664753492593665
aF-3.6250269629411913
aa(lp689
F-10.908059954969222
aF18.188790682286637
aa(lp690
F28.87659822634201
aF-0.24473562148297243
aa(lp691
F28.090357828613403
aF-15.351048803022518
aa(lp692
F-6.426836227936664
aF-13.334002781986433
aa(lp693
F-35.09401196492737
aF4.275790553756663
aa(lp694
F-4.596810315708111
aF-15.833509845027006
aa(lp695
F-16.339064517769405
aF25.979310219402535
aa(lp696
F18.393053336090283
aF16.528198160490348
aa(lp697
F1.8816990211319082
aF-0.8691910242287978
aa(lp698
F14.900628800005638
aF-17.263371283705244
aa(lp699
F26.972183633787097
aF-1.585187527729365
aa(lp700
F-24.163729152091815
aF20.39244799511234
aa(lp701
F-11.750700557401563
aF-9.79550252799933
aa(lp702
F13.981535035945146
aF-24.64124422408081
aa(lp703
F-11.368462133556374
aF9.621309406136398
aa(lp704
F-3.6014492053582696
aF-19.172689578640878
aa(lp705
F16.316586652950946
aF-2.147428850724841
aa(lp706
F-7.887493478902618
aF11.306986685937142
aa(lp707
F10.445138666905146
aF13.096955766242457
aa(lp708
F-7.730526344666835
aF15.265587527231357
aa(lp709
F7.58570306174272
aF-9.278477123235078
aa(lp710
F14.039803360373542
aF-24.023643138373906
aa(lp711
F-34.756981956649796
aF-7.307304754063626
aa(lp712
F7.151429927765207
aF8.139268779238275
aa(lp713
F-4.469360027265409
aF17.12602986930891
aa(lp714
F-3.7191084899987072
aF-6.9640419727230904
aa(lp715
F-15.342744350846138
aF11.341299261485789
aa(lp716
F-6.402262515988687
aF11.801984137949262
aa(lp717
F4.520295303382743
aF5.994815641356303
aa(lp718
F-8.216281822779173
aF-9.037710139593388
aa(lp719
F15.765356200752151
aF-11.888087671890949
aa(lp720
F20.538922217670226
aF-15.361169213393804
aa(lp721
F-14.916393267052674
aF-3.7478197286541706
aa(lp722
F2.2710913966392
aF-9.800047073193982
aa(lp723
F14.738755354607726
aF-6.721277717799873
aa(lp724
F5.627909233965062
aF-19.050001327362423
aa(lp725
F-20.295554711218124
aF8.45577672191906
aa(lp726
F-33.84742015922588
aF-11.287820697813068
aa(lp727
F7.622314785413691
aF-5.543560417453937
aa(lp728
F3.2923357568800573
aF15.314060708551997
aa(lp729
F-12.90382169450578
aF-4.226644571582719
aa(lp730
F22.75759090611629
aF20.197540483644655
aa(lp731
F15.222206013178958
aF3.9338612443303655
aa(lp732
F7.061969780028407
aF15.545336268705354
aa(lp733
F-12.95780589793006
aF15.208371613793133
aa(lp734
F-5.733256945353816
aF14.921108696651862
aa(lp735
F-13.959252160672017
aF-3.9833496141175218
aa(lp736
F19.246942329946922
aF-28.76412091160979
aa(lp737
F19.11038262736734
aF-1.619347726177083
aa(lp738
F-29.72409658168305
aF-8.699743183187348
aa(lp739
F-17.816719706936777
aF-1.4843044286140903
aa(lp740
F-34.04277483131326
aF-3.4325964378382112
aa(lp741
F14.119529197059627
aF13.616341374101301
aa(lp742
F5.32597187186513
aF-16.285373840431944
aa(lp743
F5.812075023736278
aF-24.441827118772476
aa(lp744
F-13.450464476743944
aF-15.782526496254071
aa(lp745
F-26.576660878431987
aF1.1372928238993263
aa(lp746
F6.473579670215878
aF-16.650171548253375
aa(lp747
F13.300102290960483
aF9.864306473193059
aa(lp748
F-15.207899558318188
aF-8.123282659130044
aa(lp749
F-18.349110537391255
aF-8.832029433692856
aa(lp750
F-30.282567832631987
aF-3.710778591769945
aa(lp751
F0.4358507023768383
aF12.788078221908984
aa(lp752
F5.637250425269231
aF25.510943864608425
aa(lp753
F29.649169201020463
aF-1.3916066213740634
aa(lp754
F-8.04763286143385
aF3.1485343271648882
aa(lp755
F-6.9313337081987285
aF8.89212974893182
aa(lp756
F15.076531794345613
aF-0.7320542346585888
aa(lp757
F0.1384747631769897
aF-3.805121450573759
aa(lp758
F15.586407874935915
aF-4.608699541237583
aa(lp759
F5.620118722100961
aF-12.957578811957744
aa(lp760
F-27.270283363507414
aF-20.361636783884432
aa(lp761
F3.5362547295169513
aF12.383179348827133
aa(lp762
F34.058024690726256
aF-13.293102665900166
aa(lp763
F-32.51654217966745
aF7.954383050095167
aa(lp764
F17.019782942269433
aF1.6387623371520486
aa(lp765
F22.415536805263255
aF-2.8683002666174957
aa(lp766
F9.603584350471357
aF1.8969890117094372
aa(lp767
F-18.01547287326216
aF13.426259871694887
aa(lp768
F-12.84207048753565
aF1.754230339872974
aa(lp769
F-7.645419179957807
aF17.574385119854405
aa(lp770
F3.658764484421352
aF-12.137836956778507
aa(lp771
F16.583135341558574
aF9.518529973687032
aa(lp772
F28.414184302557565
aF2.96846128918487
aa(lp773
F23.12245790228841
aF8.110060731098969
aa(lp774
F-31.51987652054403
aF-11.45521148431248
aa(lp775
F17.849352933297777
aF6.57806951148906
aa(lp776
F2.449142039950729
aF-12.241546097218503
aa(lp777
F-21.537493592127582
aF5.021533948293319
aa(lp778
F14.110516166259668
aF-20.00877053712329
aa(lp779
F-30.927974626177658
aF2.0760368272697316
aa(lp780
F20.692723330420034
aF-3.7587690931010127
aa(lp781
F5.781328034204137
aF-0.3535585445360493
aa(lp782
F22.077919721525557
aF5.489933348319454
aa(lp783
F-25.276099103686715
aF13.537424059044922
aa(lp784
F19.98411876313278
aF-7.5656300188427705
aa(lp785
F-36.908289067001206
aF-7.348855517426947
aa(lp786
F4.0304712684467106
aF-14.189463009492194
aa(lp787
F13.58607764401855
aF-10.098907696657918
aa(lp788
F0.5598452467574536
aF15.851162627147135
aa(lp789
F-0.29802361917196807
aF8.150195187679556
aa(lp790
F19.54365314105713
aF23.53002047534385
aa(lp791
F3.2423495386537815
aF-15.453836804554735
aa(lp792
F21.470099543842952
aF-6.616127598188869
aa(lp793
F19.1167163239529
aF7.2106090409470776
aa(lp794
F0.9440900696216901
aF19.679204136243992
aa(lp795
F-15.554709779125915
aF16.224725491696585
aa(lp796
F-3.1350319304329077
aF5.7749828355778305
aa(lp797
F-23.496473291187034
aF9.984705411814726
aa(lp798
F7.1097929603326335
aF-11.487200593513979
aa(lp799
F12.837829147341202
aF-3.0505169596105683
aa(lp800
F17.319470185191598
aF-15.36093040114737
aa(lp801
F1.4218062791390678
aF-0.27195207725799475
aa(lp802
F7.536127699105078
aF12.789387964230706
aasS'error'
p803
F1.6077152490615845
s.